Component: ARM Compiler 5.06 update 2 (build 183) Tool: armlink [4d35b7]

==============================================================================

Section Cross References

    ucos_task.o(.text) refers to time.o(.text) for Get_Cycle_T
    ucos_task.o(.text) refers to f2d.o(x$fpl$f2d) for __aeabi_f2d
    ucos_task.o(.text) refers to dleqf.o(x$fpl$dleqf) for __aeabi_cdcmple
    ucos_task.o(.text) refers to lis3mdl.o(.text) for LSM6_readAcc
    ucos_task.o(.text) refers to mpu6050.o(.text) for MPU6050_Data_Prepare
    ucos_task.o(.text) refers to ukf_task.o(.text) for ukf_pos_task_qr
    ucos_task.o(.text) refers to my_math.o(.text) for To_180_degrees
    ucos_task.o(.text) refers to watch_dog.o(.text) for IWDG_Feed
    ucos_task.o(.text) refers to delay.o(.text) for delay_ms
    ucos_task.o(.text) refers to ucos_task.o(.data) for inner_loop_time_time
    ucos_task.o(.text) refers to lis3mdl.o(.bss) for lis3mdl
    ucos_task.o(.text) refers to ucos_task.o(.bss) for flow_matlab_data
    ucos_task.o(.text) refers to imu.o(.data) for Yaw
    ucos_task.o(.text) refers to nav_ukf.o(.bss) for navUkfData
    ucos_task.o(.text) refers to imu_m.o(.data) for ref_q_imd_down
    ucos_task.o(.text) refers to imu.o(.bss) for q_nav
    ucos_task.o(.text) refers to imu_m.o(.bss) for reference_vr_imd_down
    ucos_task.o(.text) refers to usart_fc.o(.data) for imu_feed_dog
    ucos_task.o(.text) refers to mpu6050.o(.bss) for imu_fushion
    ucos_task.o(.text) refers to imu_m.o(.text) for madgwick_update_new
    ucos_task.o(.text) refers to fabs.o(i.__hardfp_fabs) for __hardfp_fabs
    ucos_task.o(.text) refers to drleqf.o(x$fpl$drleqf) for __aeabi_cdrcmple
    ucos_task.o(.text) refers to usart_fc.o(.bss) for pi_flow
    ucos_task.o(.text) refers to main.o(.bss) for module
    ucos_task.o(.text) refers to alt_kf.o(.text) for altUkfProcess
    ucos_task.o(.text) refers to ultrasonic.o(.text) for Ultra_Duty
    ucos_task.o(.text) refers to dflt_clz.o(x$fpl$dfltu) for __aeabi_ui2d
    ucos_task.o(.text) refers to basic.o(x$fpl$basic) for __aeabi_dneg
    ucos_task.o(.text) refers to d2f.o(x$fpl$d2f) for __aeabi_d2f
    ucos_task.o(.text) refers to flow.o(.text) for flow_pertreatment_oldx
    ucos_task.o(.text) refers to ddiv.o(x$fpl$ddiv) for __aeabi_ddiv
    ucos_task.o(.text) refers to ultrasonic.o(.data) for ultra_ok
    ucos_task.o(.text) refers to alt_kf.o(.data) for ALT_POS_SONAR3
    ucos_task.o(.text) refers to flow.o(.bss) for flow_per_out
    ucos_task.o(.text) refers to flow.o(.data) for k_flow_devide
    ucos_task.o(.text) refers to dmul.o(x$fpl$dmul) for __aeabi_dmul
    ucos_task.o(.text) refers to daddsub_clz.o(x$fpl$dadd) for __aeabi_dadd
    ucos_task.o(.text) refers to nav_ukf.o(.text) for navUkfRotateVectorByQuat
    ucos_task.o(.text) refers to fliter.o(.text) for Moving_Median
    ucos_task.o(.text) refers to fliter.o(.bss) for firstOrderFilters
    ucos_task.o(.text) refers to os_core.o(.text) for OSIntEnter
    ucos_task.o(.text) refers to stm32f4xx_tim.o(.text) for TIM_GetITStatus
    ucos_task.o(.text) refers to usart_fc.o(.text) for Send_TO_FLOW_NAV_GPS
    ucos_task.o(.text) refers to stm32f4xx_dma.o(.text) for DMA_GetFlagStatus
    ucos_task.o(.text) refers to stm32f4xx_usart.o(.text) for USART_DMACmd
    ucos_task.o(.text) refers to dma.o(.text) for MYDMA_Enable
    ucos_task.o(.text) refers to dfix.o(x$fpl$dfix) for __aeabi_d2iz
    ucos_task.o(.text) refers to alt_kf.o(.bss) for acc_z_view
    ucos_task.o(.text) refers to ms5611_2.o(.data) for baroAlt
    ucos_task.o(.text) refers to ukf_task.o(.bss) for X_ukf
    ucos_task.o(.text) refers to ukf_task.o(.data) for K_spd_flow
    ucos_task.o(.text) refers to led_fc.o(.text) for LEDRGB_STATE
    ucos_task.o(.text) refers to os_core.o(.data) for OSCPUUsage
    main.o(.text) refers to os_mbox.o(.text) for OSMboxCreate
    main.o(.text) refers to os_q.o(.text) for OSQCreate
    main.o(.text) refers to os_flag.o(.text) for OSFlagCreate
    main.o(.text) refers to os_core.o(.text) for OSStatInit
    main.o(.text) refers to os_tmr.o(.text) for OSTmrCreate
    main.o(.text) refers to os_cpu_a.o(.text) for OS_CPU_SR_Save
    main.o(.text) refers to os_task.o(.text) for OSTaskCreate
    main.o(.text) refers to misc.o(.text) for NVIC_PriorityGroupConfig
    main.o(.text) refers to delay.o(.text) for delay_init
    main.o(.text) refers to time.o(.text) for Initial_Timer_SYS
    main.o(.text) refers to iic_soft.o(.text) for I2c_Soft_Init
    main.o(.text) refers to iic1.o(.text) for IIC_IMU1_Init
    main.o(.text) refers to lis3mdl.o(.text) for LIS3MDL_enableDefault
    main.o(.text) refers to alt_kf.o(.text) for altUkfInit
    main.o(.text) refers to led_fc.o(.text) for LED_Init
    main.o(.text) refers to usart_fc.o(.text) for Usart1_Init
    main.o(.text) refers to dma.o(.text) for MYDMA_Config
    main.o(.text) refers to flash_w25.o(.text) for W25QXX_Init
    main.o(.text) refers to flash.o(.text) for READ_PARM
    main.o(.text) refers to stm32f4xx_usart.o(.text) for USART_DMACmd
    main.o(.text) refers to watch_dog.o(.text) for IWDG_Init
    main.o(.text) refers to main.o(.bss) for mcuID
    main.o(.text) refers to main.o(.data) for msg_key
    main.o(.text) refers to ucos_task.o(.text) for tmr1_callback
    main.o(.text) refers to ucos_task.o(.data) for tmr1
    main.o(.text) refers to ucos_task.o(.bss) for INNER_TASK_STK
    main.o(.text) refers to usart_fc.o(.bss) for SendBuff2
    error.o(.text) refers to f2d.o(x$fpl$f2d) for __aeabi_f2d
    error.o(.text) refers to fabs.o(i.__hardfp_fabs) for __hardfp_fabs
    error.o(.text) refers to drleqf.o(x$fpl$drleqf) for __aeabi_cdrcmple
    error.o(.text) refers to error.o(.data) for ero
    error.o(.text) refers to error.o(.bss) for cnt_over
    error.o(.text) refers to imu.o(.data) for Pitch
    error.o(.text) refers to alt_kf.o(.data) for altUkfData_bmp
    rt_nonfinite.o(.text) refers to rtgetnan.o(.text) for rtGetNaN
    rt_nonfinite.o(.text) refers to rtgetinf.o(.text) for rtGetInf
    rt_nonfinite.o(.text) refers to deqf.o(x$fpl$deqf) for __aeabi_cdcmpeq
    rt_nonfinite.o(.text) refers to rt_nonfinite.o(.data) for rtNaN
    rtgetnan.o(.text) refers to f2d.o(x$fpl$f2d) for __aeabi_f2d
    rtgetinf.o(.text) refers to f2d.o(x$fpl$f2d) for __aeabi_f2d
    system_stm32f4xx.o(.text) refers to system_stm32f4xx.o(.data) for SystemCoreClock
    startup_stm32f40_41xxx.o(STACK) refers (Special) to heapauxi.o(.text) for __use_two_region_memory
    startup_stm32f40_41xxx.o(HEAP) refers (Special) to heapauxi.o(.text) for __use_two_region_memory
    startup_stm32f40_41xxx.o(RESET) refers (Special) to heapauxi.o(.text) for __use_two_region_memory
    startup_stm32f40_41xxx.o(RESET) refers to startup_stm32f40_41xxx.o(STACK) for __initial_sp
    startup_stm32f40_41xxx.o(RESET) refers to startup_stm32f40_41xxx.o(.text) for Reset_Handler
    startup_stm32f40_41xxx.o(RESET) refers to stm32f4xx_it.o(.text) for NMI_Handler
    startup_stm32f40_41xxx.o(RESET) refers to os_cpu_a.o(.text) for PendSV_Handler
    startup_stm32f40_41xxx.o(RESET) refers to delay.o(.text) for SysTick_Handler
    startup_stm32f40_41xxx.o(RESET) refers to ucos_task.o(.text) for TIM3_IRQHandler
    startup_stm32f40_41xxx.o(RESET) refers to usart_fc.o(.text) for USART1_IRQHandler
    startup_stm32f40_41xxx.o(RESET) refers to ultrasonic.o(.text) for EXTI15_10_IRQHandler
    startup_stm32f40_41xxx.o(RESET) refers to time.o(.text) for TIM7_IRQHandler
    startup_stm32f40_41xxx.o(.text) refers (Special) to heapauxi.o(.text) for __use_two_region_memory
    startup_stm32f40_41xxx.o(.text) refers to system_stm32f4xx.o(.text) for SystemInit
    startup_stm32f40_41xxx.o(.text) refers to __main.o(!!!main) for __main
    startup_stm32f40_41xxx.o(.text) refers to startup_stm32f40_41xxx.o(HEAP) for Heap_Mem
    startup_stm32f40_41xxx.o(.text) refers to startup_stm32f40_41xxx.o(STACK) for Stack_Mem
    delay.o(.text) refers to os_core.o(.text) for OSIntEnter
    delay.o(.text) refers to misc.o(.text) for SysTick_CLKSourceConfig
    delay.o(.text) refers to os_time.o(.text) for OSTimeDly
    delay.o(.text) refers to delay.o(.data) for fac_us
    delay.o(.text) refers to os_core.o(.data) for OSRunning
    stm32f4xx_gpio.o(.text) refers to stm32f4xx_rcc.o(.text) for RCC_AHB1PeriphResetCmd
    stm32f4xx_fsmc.o(.text) refers to stm32f4xx_fsmc.o(.constdata) for FSMC_DefaultTimingStruct
    stm32f4xx_rcc.o(.text) refers to stm32f4xx_rcc.o(.data) for APBAHBPrescTable
    stm32f4xx_syscfg.o(.text) refers to stm32f4xx_rcc.o(.text) for RCC_APB2PeriphResetCmd
    stm32f4xx_usart.o(.text) refers to stm32f4xx_rcc.o(.text) for RCC_APB2PeriphResetCmd
    stm32f4xx_tim.o(.text) refers to stm32f4xx_rcc.o(.text) for RCC_APB2PeriphResetCmd
    stm32f4xx_pwr.o(.text) refers to stm32f4xx_rcc.o(.text) for RCC_APB1PeriphResetCmd
    stm32f4xx_spi.o(.text) refers to stm32f4xx_rcc.o(.text) for RCC_APB2PeriphResetCmd
    stm32f4xx_adc.o(.text) refers to stm32f4xx_rcc.o(.text) for RCC_APB2PeriphResetCmd
    stm32f4xx_can.o(.text) refers to stm32f4xx_rcc.o(.text) for RCC_APB1PeriphResetCmd
    os_core.o(.text) refers to os_task.o(.text) for OSTaskStkChk
    os_core.o(.text) refers to os_time.o(.text) for OSTimeDly
    os_core.o(.text) refers to os_cpu_a.o(.text) for OS_CPU_SR_Save
    os_core.o(.text) refers to os_cpu_c.o(.text) for OSTaskStatHook
    os_core.o(.text) refers to os_flag.o(.text) for OS_FlagInit
    os_core.o(.text) refers to os_q.o(.text) for OS_QInit
    os_core.o(.text) refers to os_tmr.o(.text) for OSTmr_Init
    os_core.o(.text) refers to os_core.o(.bss) for OSTCBPrioTbl
    os_core.o(.text) refers to os_core.o(.data) for OSStatRdy
    os_core.o(.text) refers to os_core.o(.constdata) for OSUnMapTbl
    os_flag.o(.text) refers to os_cpu_a.o(.text) for OS_CPU_SR_Save
    os_flag.o(.text) refers to os_core.o(.text) for OS_Sched
    os_flag.o(.text) refers to os_core.o(.data) for OSIntNesting
    os_flag.o(.text) refers to os_core.o(.bss) for OSFlagTbl
    os_mbox.o(.text) refers to os_cpu_a.o(.text) for OS_CPU_SR_Save
    os_mbox.o(.text) refers to os_core.o(.text) for OS_EventWaitListInit
    os_mbox.o(.text) refers to os_core.o(.data) for OSIntNesting
    os_mutex.o(.text) refers to os_cpu_a.o(.text) for OS_CPU_SR_Save
    os_mutex.o(.text) refers to os_core.o(.text) for OS_EventWaitListInit
    os_mutex.o(.text) refers to os_core.o(.data) for OSIntNesting
    os_mutex.o(.text) refers to os_core.o(.bss) for OSTCBPrioTbl
    os_q.o(.text) refers to os_cpu_a.o(.text) for OS_CPU_SR_Save
    os_q.o(.text) refers to os_core.o(.text) for OS_EventWaitListInit
    os_q.o(.text) refers to os_core.o(.data) for OSIntNesting
    os_q.o(.text) refers to os_core.o(.bss) for OSQTbl
    os_sem.o(.text) refers to os_cpu_a.o(.text) for OS_CPU_SR_Save
    os_sem.o(.text) refers to os_core.o(.text) for OS_EventWaitListInit
    os_sem.o(.text) refers to os_core.o(.data) for OSIntNesting
    os_task.o(.text) refers to os_cpu_a.o(.text) for OS_CPU_SR_Save
    os_task.o(.text) refers to os_core.o(.text) for OS_Sched
    os_task.o(.text) refers to os_cpu_c.o(.text) for OSTaskStkInit
    os_task.o(.text) refers to os_flag.o(.text) for OS_FlagUnlink
    os_task.o(.text) refers to os_core.o(.bss) for OSTCBPrioTbl
    os_task.o(.text) refers to os_core.o(.data) for OSTCBCur
    os_time.o(.text) refers to os_cpu_a.o(.text) for OS_CPU_SR_Save
    os_time.o(.text) refers to os_core.o(.text) for OS_Sched
    os_time.o(.text) refers to os_core.o(.data) for OSIntNesting
    os_time.o(.text) refers to os_core.o(.bss) for OSTCBPrioTbl
    os_tmr.o(.text) refers to os_core.o(.text) for OSSchedLock
    os_tmr.o(.text) refers to os_core.o(.data) for OSTmrFreeList
    os_tmr.o(.text) refers to os_core.o(.bss) for OSTmrWheelTbl
    os_tmr.o(.text) refers to os_sem.o(.text) for OSSemPost
    os_tmr.o(.text) refers to os_task.o(.text) for OSTaskCreateExt
    os_cpu_a.o(.text) refers to os_core.o(.data) for OSRunning
    os_cpu_a.o(.text) refers to os_cpu_c.o(.text) for OSTaskSwHook
    os_cpu_c.o(.text) refers to os_tmr.o(.text) for OSTmrSignal
    os_cpu_c.o(.text) refers to os_cpu_c.o(.data) for OSTmrCtr
    os_cpu_c.o(.text) refers to os_task.o(.text) for OS_TaskReturn
    iic_fc.o(.text) refers to stm32f4xx_rcc.o(.text) for RCC_AHB1PeriphClockCmd
    iic_fc.o(.text) refers to stm32f4xx_gpio.o(.text) for GPIO_Init
    iic_fc.o(.text) refers to time.o(.text) for Delay_us
    iic1.o(.text) refers to stm32f4xx_rcc.o(.text) for RCC_AHB1PeriphClockCmd
    iic1.o(.text) refers to stm32f4xx_gpio.o(.text) for GPIO_Init
    iic1.o(.text) refers to lis3mdl.o(.data) for IMU1_Fast
    iic_imu1.o(.text) refers to stm32f4xx_rcc.o(.text) for RCC_AHB1PeriphClockCmd
    iic_imu1.o(.text) refers to stm32f4xx_gpio.o(.text) for GPIO_Init
    iic_imu1.o(.text) refers to iic_imu1.o(.data) for I2C_IMU1_FastMode
    iic_soft.o(.text) refers to stm32f4xx_rcc.o(.text) for RCC_AHB1PeriphClockCmd
    iic_soft.o(.text) refers to stm32f4xx_gpio.o(.text) for GPIO_Init
    iic_soft.o(.text) refers to iic_soft.o(.data) for I2C_FastMode
    led_fc.o(.text) refers to stm32f4xx_gpio.o(.text) for GPIO_ResetBits
    led_fc.o(.text) refers to stm32f4xx_rcc.o(.text) for RCC_AHB1PeriphClockCmd
    led_fc.o(.text) refers to time.o(.text) for Delay_ms
    led_fc.o(.text) refers to usart_fc.o(.bss) for mode
    led_fc.o(.text) refers to lis3mdl.o(.bss) for lis3mdl
    led_fc.o(.text) refers to led_fc.o(.data) for idle_state
    led_fc.o(.text) refers to main.o(.bss) for module
    flash.o(.text) refers to stm32f4xx_flash.o(.text) for FLASH_Unlock
    flash.o(.text) refers to flash_w25.o(.text) for W25QXX_Read
    flash.o(.text) refers to f2d.o(x$fpl$f2d) for __aeabi_f2d
    flash.o(.text) refers to ddiv.o(x$fpl$ddiv) for __aeabi_ddiv
    flash.o(.text) refers to d2f.o(x$fpl$d2f) for __aeabi_d2f
    flash.o(.text) refers to flash.o(.data) for FLASH_SIZE
    flash.o(.text) refers to flash.o(.bss) for FLASH_READ_BUF
    flash.o(.text) refers to mpu6050.o(.bss) for mpu6050
    flash.o(.text) refers to hml_sample.o(.data) for ak8975
    flash.o(.text) refers to lis3mdl.o(.bss) for lis3mdl
    flash.o(.text) refers to fabs.o(i.__hardfp_fabs) for __hardfp_fabs
    flash.o(.text) refers to dleqf.o(x$fpl$dleqf) for __aeabi_cdcmple
    flash.o(.text) refers to drleqf.o(x$fpl$drleqf) for __aeabi_cdrcmple
    flash.o(.text) refers to main.o(.bss) for module
    flash_w25.o(.text) refers to stm32f4xx_spi.o(.text) for SPI_I2S_GetFlagStatus
    flash_w25.o(.text) refers to stm32f4xx_rcc.o(.text) for RCC_AHB1PeriphClockCmd
    flash_w25.o(.text) refers to stm32f4xx_gpio.o(.text) for GPIO_Init
    flash_w25.o(.text) refers to flash_w25.o(.data) for W25QXX_TYPE
    flash_w25.o(.text) refers to flash_w25.o(.bss) for W25QXX_BUFFER
    flash_w25.o(.text) refers to delay.o(.text) for delay_us
    time.o(.text) refers to stm32f4xx_rcc.o(.text) for RCC_GetClocksFreq
    time.o(.text) refers to misc.o(.text) for SysTick_CLKSourceConfig
    time.o(.text) refers to delay.o(.text) for delay_us
    time.o(.text) refers to stm32f4xx_tim.o(.text) for TIM_TimeBaseInit
    time.o(.text) refers to time.o(.bss) for Cycle_T
    time.o(.text) refers to usart_fc.o(.data) for USART3_RX_STA
    dma.o(.text) refers to stm32f4xx_rcc.o(.text) for RCC_AHB1PeriphClockCmd
    dma.o(.text) refers to stm32f4xx_dma.o(.text) for DMA_DeInit
    watch_dog.o(.text) refers to stm32f4xx_iwdg.o(.text) for IWDG_WriteAccessCmd
    gps.o(.text) refers to strstr.o(.text) for strstr
    gps.o(.text) refers to time.o(.text) for Get_Cycle_T
    gps.o(.text) refers to dflt_clz.o(x$fpl$dfltu) for __aeabi_ui2d
    gps.o(.text) refers to ddiv.o(x$fpl$ddiv) for __aeabi_ddiv
    gps.o(.text) refers to gps.o(.data) for gps_dt
    gps.o(.text) refers to f2d.o(x$fpl$f2d) for __aeabi_f2d
    gps.o(.text) refers to dmul.o(x$fpl$dmul) for __aeabi_dmul
    gps.o(.text) refers to d2f.o(x$fpl$d2f) for __aeabi_d2f
    usart_fc.o(.text) refers to stm32f4xx_rcc.o(.text) for RCC_APB1PeriphClockCmd
    usart_fc.o(.text) refers to misc.o(.text) for NVIC_Init
    usart_fc.o(.text) refers to stm32f4xx_gpio.o(.text) for GPIO_PinAFConfig
    usart_fc.o(.text) refers to stm32f4xx_usart.o(.text) for USART_Init
    usart_fc.o(.text) refers to time.o(.text) for Get_Cycle_T
    usart_fc.o(.text) refers to f2d.o(x$fpl$f2d) for __aeabi_f2d
    usart_fc.o(.text) refers to ddiv.o(x$fpl$ddiv) for __aeabi_ddiv
    usart_fc.o(.text) refers to d2f.o(x$fpl$d2f) for __aeabi_d2f
    usart_fc.o(.text) refers to usart_fc.o(.data) for FC_CONNECT
    usart_fc.o(.text) refers to main.o(.bss) for module
    usart_fc.o(.text) refers to ucos_task.o(.data) for fly_ready
    usart_fc.o(.text) refers to usart_fc.o(.bss) for qr
    usart_fc.o(.text) refers to mpu6050.o(.bss) for mpu6050
    usart_fc.o(.text) refers to hml_sample.o(.data) for ak8975
    usart_fc.o(.text) refers to lis3mdl.o(.bss) for lis3mdl
    usart_fc.o(.text) refers to os_core.o(.text) for OSIntEnter
    usart_fc.o(.text) refers to flow.o(.data) for k_flow_devide
    usart_fc.o(.text) refers to ucos_task.o(.bss) for flow_ground_temp
    usart_fc.o(.text) refers to alt_kf.o(.data) for flowUkfData_x
    usart_fc.o(.text) refers to dmul.o(x$fpl$dmul) for __aeabi_dmul
    usart_fc.o(.text) refers to dfix.o(x$fpl$dfix) for __aeabi_d2iz
    usart_fc.o(.text) refers to nav_ukf.o(.bss) for navUkfData
    usart_fc.o(.text) refers to ukf_task.o(.data) for X_ukf_Pos
    usart_fc.o(.text) refers to ukf_task.o(.bss) for X_ukf
    usart_fc.o(.text) refers to ultrasonic.o(.data) for ultra_distance
    usart_fc.o(.text) refers to ms5611_2.o(.data) for baroAlt
    usart_fc.o(.text) refers to imu.o(.data) for Pitch
    usart_fc.o(.text) refers to imu_m.o(.data) for ref_q_imd_down
    usart_fc.o(.text) refers to fliter.o(.text) for Moving_Median
    usart_fc.o(.text) refers to error.o(.data) for sys
    usart_fc.o(.text) refers to dflt_clz.o(x$fpl$dflt) for __aeabi_i2d
    usart_fc.o(.text) refers to daddsub_clz.o(x$fpl$drsb) for __aeabi_drsub
    usart_fc.o(.text) refers to flow.o(.text) for flow_uart_rx_oldx
    usart_fc.o(.text) refers to delay.o(.text) for delay_ms
    usart_fc.o(.text) refers to gps.o(.text) for NMEA_GPRMC_Analysis
    usart_fc.o(.text) refers to dflt_clz.o(x$fpl$dfltu) for __aeabi_ui2d
    usart_fc.o(.text) refers to daddsub_clz.o(x$fpl$dadd) for __aeabi_dadd
    usart_fc.o(.text) refers to fabs.o(i.__hardfp_fabs) for __hardfp_fabs
    usart_fc.o(.text) refers to dleqf.o(x$fpl$dleqf) for __aeabi_cdcmple
    usart_fc.o(.text) refers to rt_memclr_w.o(.text) for __aeabi_memclr4
    usart_fc.o(.text) refers to alt_kf.o(.bss) for X_kf_baro
    usart_fc.o(.text) refers to ultrasonic.o(.text) for Ultra_Get
    usart_fc.o(.text) refers to imu.o(.bss) for q_nav
    m100.o(.text) refers to usart_fc.o(.text) for UsartSend_M100
    m100.o(.text) refers to delay.o(.text) for delay_ms
    m100.o(.text) refers to my_math.o(.text) for my_deathzoom_2
    m100.o(.text) refers to fliter.o(.text) for Moving_Median
    m100.o(.text) refers to dflt_clz.o(x$fpl$dflt) for __aeabi_i2d
    m100.o(.text) refers to ddiv.o(x$fpl$ddiv) for __aeabi_ddiv
    m100.o(.text) refers to dmul.o(x$fpl$dmul) for __aeabi_dmul
    m100.o(.text) refers to dfix.o(x$fpl$dfix) for __aeabi_d2iz
    m100.o(.text) refers to m100.o(.data) for m100_x_g
    lis3mdl.o(.text) refers to iic1.o(.text) for IIC_IMU1writeByte
    lis3mdl.o(.text) refers to f2d.o(x$fpl$f2d) for __aeabi_f2d
    lis3mdl.o(.text) refers to daddsub_clz.o(x$fpl$dadd) for __aeabi_dadd
    lis3mdl.o(.text) refers to d2f.o(x$fpl$d2f) for __aeabi_d2f
    lis3mdl.o(.text) refers to dmul.o(x$fpl$dmul) for __aeabi_dmul
    lis3mdl.o(.text) refers to pow.o(i.__hardfp_pow) for __hardfp_pow
    lis3mdl.o(.text) refers to daddsub_clz.o(x$fpl$drsb) for __aeabi_drsub
    lis3mdl.o(.text) refers to lis3mdl.o(.data) for id
    lis3mdl.o(.text) refers to lis3mdl.o(.bss) for lis3mdl
    lis3mdl.o(.text) refers to cycle_cal_oldx.o(.text) for cycle_init_oldx
    lis3mdl.o(.text) refers to sqrt.o(i.__hardfp_sqrt) for __hardfp_sqrt
    lis3mdl.o(.text) refers to fabs.o(i.__hardfp_fabs) for __hardfp_fabs
    lis3mdl.o(.text) refers to drleqf.o(x$fpl$drleqf) for __aeabi_cdrcmple
    lis3mdl.o(.text) refers to ddiv.o(x$fpl$ddiv) for __aeabi_ddiv
    lis3mdl.o(.text) refers to cycle_cal_oldx.o(.bss) for hml_lsq
    lis3mdl.o(.text) refers to dleqf.o(x$fpl$dleqf) for __aeabi_cdcmple
    lis3mdl.o(.text) refers to flash.o(.text) for WRITE_PARM
    lis3mdl.o(.text) refers to usart_fc.o(.data) for acc_3d_step
    lis3mdl.o(.text) refers to imu_m.o(.data) for init_hml_norm
    lis3mdl.o(.text) refers to main.o(.bss) for module
    lis3mdl.o(.text) refers to acos.o(i.__hardfp_acos) for __hardfp_acos
    lis3mdl.o(.text) refers to atan2f.o(i.__hardfp_atan2f) for __hardfp_atan2f
    lis3mdl.o(.text) refers to rt_memclr_w.o(.text) for __aeabi_memclr4
    lis3mdl.o(.text) refers to fliter.o(.text) for utilFilterInit
    lis3mdl.o(.text) refers to my_math.o(.text) for To_180_degrees
    lis3mdl.o(.text) refers to imu.o(.data) for Yaw
    lis3mdl.o(.text) refers to mpu6050.o(.bss) for imu_fushion
    lis3mdl.o(.text) refers to hml_sample.o(.data) for ak8975
    mpu6050.o(.text) refers to lis3mdl.o(.bss) for lis3mdl
    mpu6050.o(.text) refers to mpu6050.o(.bss) for imu_fushion
    ms5611_2.o(.text) refers to iic_fc.o(.text) for IIC_Start
    ms5611_2.o(.text) refers to delay.o(.text) for delay_us
    ms5611_2.o(.text) refers to dflt_clz.o(x$fpl$dfltu) for __aeabi_ui2d
    ms5611_2.o(.text) refers to ddiv.o(x$fpl$ddiv) for __aeabi_ddiv
    ms5611_2.o(.text) refers to d2f.o(x$fpl$d2f) for __aeabi_d2f
    ms5611_2.o(.text) refers to f2d.o(x$fpl$f2d) for __aeabi_f2d
    ms5611_2.o(.text) refers to daddsub_clz.o(x$fpl$dadd) for __aeabi_dadd
    ms5611_2.o(.text) refers to pow.o(i.__hardfp_pow) for __hardfp_pow
    ms5611_2.o(.text) refers to daddsub_clz.o(x$fpl$drsb) for __aeabi_drsub
    ms5611_2.o(.text) refers to dmul.o(x$fpl$dmul) for __aeabi_dmul
    ms5611_2.o(.text) refers to llsdiv.o(.text) for __aeabi_ldivmod
    ms5611_2.o(.text) refers to ms5611_2.o(.data) for Temp_buffer
    ms5611_2.o(.text) refers to ms5611_2.o(.bss) for PROM_C
    ms5611_2.o(.text) refers to ucos_task.o(.data) for fly_ready
    ms5611_2.o(.text) refers to ffltll_clz.o(x$fpl$ffltll) for __aeabi_l2f
    ms5611_2.o(.text) refers to time.o(.text) for micros
    fliter.o(.text) refers to my_math.o(.text) for my_pow
    fliter.o(.text) refers to dmul.o(x$fpl$dmul) for __aeabi_dmul
    fliter.o(.text) refers to fliter.o(.bss) for med_fil_cnt
    fliter.o(.text) refers to daddsub_clz.o(x$fpl$dadd) for __aeabi_dadd
    fliter.o(.text) refers to daddsub_clz.o(x$fpl$dsub) for __aeabi_dsub
    fliter.o(.text) refers to fliter.o(.data) for h_tmp_x
    ultrasonic.o(.text) refers to stm32f4xx_rcc.o(.text) for RCC_AHB1PeriphClockCmd
    ultrasonic.o(.text) refers to stm32f4xx_gpio.o(.text) for GPIO_Init
    ultrasonic.o(.text) refers to stm32f4xx_syscfg.o(.text) for SYSCFG_EXTILineConfig
    ultrasonic.o(.text) refers to stm32f4xx_exti.o(.text) for EXTI_Init
    ultrasonic.o(.text) refers to misc.o(.text) for NVIC_Init
    ultrasonic.o(.text) refers to usart_fc.o(.text) for Uart5_Send
    ultrasonic.o(.text) refers to f2d.o(x$fpl$f2d) for __aeabi_f2d
    ultrasonic.o(.text) refers to dmul.o(x$fpl$dmul) for __aeabi_dmul
    ultrasonic.o(.text) refers to daddsub_clz.o(x$fpl$dadd) for __aeabi_dadd
    ultrasonic.o(.text) refers to d2f.o(x$fpl$d2f) for __aeabi_d2f
    ultrasonic.o(.text) refers to my_math.o(.text) for limit_mine
    ultrasonic.o(.text) refers to fabs.o(i.__hardfp_fabs) for __hardfp_fabs
    ultrasonic.o(.text) refers to dleqf.o(x$fpl$dleqf) for __aeabi_cdcmple
    ultrasonic.o(.text) refers to daddsub_clz.o(x$fpl$dsub) for __aeabi_dsub
    ultrasonic.o(.text) refers to ultrasonic.o(.data) for ultra_time
    ultrasonic.o(.text) refers to os_core.o(.text) for OSIntEnter
    ultrasonic.o(.text) refers to time.o(.text) for GetSysTime_us
    ultrasonic.o(.text) refers to cos.o(i.__hardfp_cos) for __hardfp_cos
    ultrasonic.o(.text) refers to ultrasonic.o(.bss) for lastUpdate_dj
    ultrasonic.o(.text) refers to imu.o(.data) for Roll
    ultrasonic.o(.text) refers to error.o(.data) for sys
    ultrasonic.o(.text) refers to main.o(.bss) for module
    ultrasonic.o(.text) refers to dflt_clz.o(x$fpl$dflt) for __aeabi_i2d
    ultrasonic.o(.text) refers to dfix.o(x$fpl$dfix) for __aeabi_d2iz
    fastmath.o(.text) refers to d2f.o(x$fpl$d2f) for __aeabi_d2f
    fastmath.o(.text) refers to f2d.o(x$fpl$f2d) for __aeabi_f2d
    fastmath.o(.text) refers to daddsub_clz.o(x$fpl$drsb) for __aeabi_drsub
    fastmath.o(.text) refers to daddsub_clz.o(x$fpl$dadd) for __aeabi_dadd
    fastmath.o(.text) refers to fastmath.o(.constdata) for a1l
    my_math.o(.text) refers to dleqf.o(x$fpl$dleqf) for __aeabi_cdcmple
    my_math.o(.text) refers to dmul.o(x$fpl$dmul) for __aeabi_dmul
    my_math.o(.text) refers to daddsub_clz.o(x$fpl$dadd) for __aeabi_dadd
    my_math.o(.text) refers to daddsub_clz.o(x$fpl$drsb) for __aeabi_drsub
    my_math.o(.text) refers to daddsub_clz.o(x$fpl$dsub) for __aeabi_dsub
    my_math.o(.text) refers to drleqf.o(x$fpl$drleqf) for __aeabi_cdrcmple
    my_math.o(.text) refers to dflt_clz.o(x$fpl$dflt) for __aeabi_i2d
    my_math.o(.text) refers to d2f.o(x$fpl$d2f) for __aeabi_d2f
    my_math.o(.text) refers to my_math.o(.data) for fast_atan_table
    kf_oldx_nav.o(.text) refers to fabs.o(i.__hardfp_fabs) for __hardfp_fabs
    kf_oldx_nav.o(.text) refers to drleqf.o(x$fpl$drleqf) for __aeabi_cdrcmple
    kf_oldx_nav.o(.text) refers to ddiv.o(x$fpl$ddiv) for __aeabi_ddiv
    kf_oldx_nav.o(.text) refers to dmul.o(x$fpl$dmul) for __aeabi_dmul
    kf_oldx_nav.o(.text) refers to daddsub_clz.o(x$fpl$drsb) for __aeabi_drsub
    kf_oldx_nav.o(.text) refers to daddsub_clz.o(x$fpl$dsub) for __aeabi_dsub
    kf_oldx_nav.o(.text) refers to daddsub_clz.o(x$fpl$dadd) for __aeabi_dadd
    kf_oldx_nav.o(.text) refers to basic.o(x$fpl$basic) for __aeabi_dneg
    kf_oldx_nav.o(.text) refers to rt_nonfinite.o(.text) for rtIsNaN
    kf_oldx_nav.o(.text) refers to deqf.o(x$fpl$deqf) for __aeabi_cdcmpeq
    kf_oldx_nav.o(.text) refers to sqrt.o(i.__hardfp_sqrt) for __hardfp_sqrt
    kf_oldx_nav.o(.text) refers to dleqf.o(x$fpl$dleqf) for __aeabi_cdcmple
    kf_oldx_nav.o(.text) refers to floor.o(i.__hardfp_floor) for __hardfp_floor
    kf_oldx_nav.o(.text) refers to rt_nonfinite.o(.data) for rtNaN
    kf_oldx_nav.o(.text) refers to pow.o(i.__hardfp_pow) for __hardfp_pow
    kf_oldx_nav.o(.text) refers to kf_oldx_nav.o(.constdata) for dv0
    kf_oldx_nav.o(.text) refers to dflt_clz.o(x$fpl$dflt) for __aeabi_i2d
    nav_ukf.o(.text) refers to powf.o(i.__hardfp_powf) for __hardfp_powf
    nav_ukf.o(.text) refers to dmul.o(x$fpl$dmul) for __aeabi_dmul
    nav_ukf.o(.text) refers to sin.o(i.__hardfp_sin) for __hardfp_sin
    nav_ukf.o(.text) refers to daddsub_clz.o(x$fpl$drsb) for __aeabi_drsub
    nav_ukf.o(.text) refers to pow.o(i.__hardfp_pow) for __hardfp_pow
    nav_ukf.o(.text) refers to ddiv.o(x$fpl$ddiv) for __aeabi_ddiv
    nav_ukf.o(.text) refers to cos.o(i.__hardfp_cos) for __hardfp_cos
    nav_ukf.o(.text) refers to sqrt.o(i.__hardfp_sqrt) for __hardfp_sqrt
    nav_ukf.o(.text) refers to daddsub_clz.o(x$fpl$dsub) for __aeabi_dsub
    nav_ukf.o(.text) refers to d2f.o(x$fpl$d2f) for __aeabi_d2f
    nav_ukf.o(.text) refers to nav_ukf.o(.bss) for navUkfData
    nav_ukf.o(.text) refers to atan2f.o(i.__hardfp_atan2f) for __hardfp_atan2f
    nav_ukf.o(.text) refers to asinf.o(i.__hardfp_asinf) for __hardfp_asinf
    nav_ukf.o(.text) refers to atanf.o(i.__hardfp_atanf) for __hardfp_atanf
    nav_ukf.o(.text) refers to time.o(.text) for Get_Cycle_T
    nav_ukf.o(.text) refers to nav_ukf.o(.data) for time_update
    nav_ukf.o(.text) refers to f2d.o(x$fpl$f2d) for __aeabi_f2d
    nav_ukf.o(.text) refers to daddsub_clz.o(x$fpl$dadd) for __aeabi_dadd
    nav_ukf.o(.text) refers to fliter.o(.text) for firstOrderFilter
    nav_ukf.o(.text) refers to dleqf.o(x$fpl$dleqf) for __aeabi_cdcmple
    nav_ukf.o(.text) refers to drleqf.o(x$fpl$drleqf) for __aeabi_cdrcmple
    nav_ukf.o(.text) refers to imu.o(.bss) for reference_vr
    nav_ukf.o(.text) refers to ucos_task.o(.bss) for acc_neo
    nav_ukf.o(.text) refers to fliter.o(.bss) for firstOrderFilters
    nav_ukf.o(.text) refers to cosf.o(i.__hardfp_cosf) for __hardfp_cosf
    nav_ukf.o(.text) refers to sinf.o(i.__hardfp_sinf) for __hardfp_sinf
    nav_ukf.o(.text) refers to my_math.o(.text) for To_180_degrees
    nav_ukf.o(.text) refers to mpu6050.o(.bss) for imu_fushion
    nav_ukf.o(.text) refers to alt_kf.o(.text) for srcdkfTimeUpdate
    nav_ukf.o(.text) refers to basic.o(x$fpl$basic) for __aeabi_dneg
    nav_ukf.o(.text) refers to fabs.o(i.__hardfp_fabs) for __hardfp_fabs
    nav_ukf.o(.text) refers to ucos_task.o(.data) for fly_ready
    nav_ukf.o(.text) refers to deqf.o(x$fpl$deqf) for __aeabi_cdcmpeq
    nav_ukf.o(.text) refers to dflt_clz.o(x$fpl$dfltu) for __aeabi_ui2d
    nav_ukf.o(.text) refers to usart_fc.o(.data) for baroAlt_fc
    nav_ukf.o(.text) refers to usart_fc.o(.bss) for gpsx
    nav_ukf.o(.text) refers to rt_memclr_w.o(.text) for __aeabi_memclr4
    nav_ukf.o(.text) refers to alt_kf.o(.data) for altUkfData_bmp
    nav_ukf.o(.text) refers to arm_std_f32.o(.text) for arm_std_f32
    nav_ukf.o(.text) refers to ukf_task.o(.data) for gps_init
    imu.o(.text) refers to f2d.o(x$fpl$f2d) for __aeabi_f2d
    imu.o(.text) refers to my_math.o(.text) for my_sqrt
    imu.o(.text) refers to fliter.o(.text) for simple_3d_trans
    imu.o(.text) refers to cos.o(i.__hardfp_cos) for __hardfp_cos
    imu.o(.text) refers to dmul.o(x$fpl$dmul) for __aeabi_dmul
    imu.o(.text) refers to sin.o(i.__hardfp_sin) for __hardfp_sin
    imu.o(.text) refers to daddsub_clz.o(x$fpl$dsub) for __aeabi_dsub
    imu.o(.text) refers to d2f.o(x$fpl$d2f) for __aeabi_d2f
    imu.o(.text) refers to imu.o(.data) for cnt
    imu.o(.text) refers to imu.o(.bss) for ref
    imu.o(.text) refers to mpu6050.o(.bss) for imu_fushion
    imu.o(.text) refers to daddsub_clz.o(x$fpl$dadd) for __aeabi_dadd
    imu.o(.text) refers to fabs.o(i.__hardfp_fabs) for __hardfp_fabs
    imu.o(.text) refers to dleqf.o(x$fpl$dleqf) for __aeabi_cdcmple
    imu.o(.text) refers to usart_fc.o(.bss) for mode
    imu.o(.text) refers to hml_sample.o(.data) for ak8975
    imu.o(.text) refers to ucos_task.o(.data) for YawR
    imu.o(.text) refers to drleqf.o(x$fpl$drleqf) for __aeabi_cdrcmple
    imu.o(.text) refers to asin.o(i.__hardfp_asin) for __hardfp_asin
    imu_m.o(.text) refers to f2d.o(x$fpl$f2d) for __aeabi_f2d
    imu_m.o(.text) refers to ddiv.o(x$fpl$ddiv) for __aeabi_ddiv
    imu_m.o(.text) refers to d2f.o(x$fpl$d2f) for __aeabi_d2f
    imu_m.o(.text) refers to fabs.o(i.__hardfp_fabs) for __hardfp_fabs
    imu_m.o(.text) refers to sqrt.o(i.__hardfp_sqrt) for __hardfp_sqrt
    imu_m.o(.text) refers to dmul.o(x$fpl$dmul) for __aeabi_dmul
    imu_m.o(.text) refers to imu_m.o(.data) for accMagP
    imu_m.o(.text) refers to main.o(.bss) for module
    imu_m.o(.text) refers to my_math.o(.text) for fast_atan2
    imu_m.o(.text) refers to asin.o(i.__hardfp_asin) for __hardfp_asin
    imu_m.o(.text) refers to imu_m.o(.bss) for reference_vr_imd_down
    imu_m.o(.text) refers to imu.o(.data) for ref_q
    ukf_task.o(.text) refers to f2d.o(x$fpl$f2d) for __aeabi_f2d
    ukf_task.o(.text) refers to daddsub_clz.o(x$fpl$dsub) for __aeabi_dsub
    ukf_task.o(.text) refers to d2f.o(x$fpl$d2f) for __aeabi_d2f
    ukf_task.o(.text) refers to daddsub_clz.o(x$fpl$dadd) for __aeabi_dadd
    ukf_task.o(.text) refers to dmul.o(x$fpl$dmul) for __aeabi_dmul
    ukf_task.o(.text) refers to sin.o(i.__hardfp_sin) for __hardfp_sin
    ukf_task.o(.text) refers to daddsub_clz.o(x$fpl$drsb) for __aeabi_drsub
    ukf_task.o(.text) refers to pow.o(i.__hardfp_pow) for __hardfp_pow
    ukf_task.o(.text) refers to ddiv.o(x$fpl$ddiv) for __aeabi_ddiv
    ukf_task.o(.text) refers to cos.o(i.__hardfp_cos) for __hardfp_cos
    ukf_task.o(.text) refers to sqrt.o(i.__hardfp_sqrt) for __hardfp_sqrt
    ukf_task.o(.text) refers to ukf_task.o(.data) for r1
    ukf_task.o(.text) refers to ukf_task.o(.bss) for acc_body_buf
    ukf_task.o(.text) refers to rt_memcpy_w.o(.text) for __aeabi_memcpy4
    ukf_task.o(.text) refers to rt_memclr_w.o(.text) for __aeabi_memclr4
    ukf_task.o(.text) refers to deqf.o(x$fpl$deqf) for __aeabi_cdcmpeq
    ukf_task.o(.text) refers to ukf_task.o(.constdata) for .constdata
    ukf_task.o(.text) refers to usart_fc.o(.bss) for gpsx
    ukf_task.o(.text) refers to main.o(.bss) for module
    ukf_task.o(.text) refers to ucos_task.o(.bss) for flow_matlab_data
    ukf_task.o(.text) refers to dflt_clz.o(x$fpl$dfltu) for __aeabi_ui2d
    ukf_task.o(.text) refers to drleqf.o(x$fpl$drleqf) for __aeabi_cdrcmple
    ukf_task.o(.text) refers to nav_ukf.o(.text) for runTaskCode
    ukf_task.o(.text) refers to alt_kf.o(.bss) for Global_GPS_Sensor
    ukf_task.o(.text) refers to nav_ukf.o(.bss) for navUkfData
    ukf_task.o(.text) refers to fliter.o(.text) for Moving_Median
    ukf_task.o(.text) refers to my_math.o(.text) for To_180_degrees
    ukf_task.o(.text) refers to imu.o(.data) for yaw_qr_off
    ukf_task.o(.text) refers to dleqf.o(x$fpl$dleqf) for __aeabi_cdcmple
    ukf_task.o(.text) refers to kf_oldx_nav.o(.text) for KF_OLDX_NAV
    ukf_task.o(.text) refers to alt_kf.o(.data) for ALT_POS_SONAR2
    ukf_task.o(.text) refers to ucos_task.o(.data) for fly_ready
    ukf_task.o(.text) refers to basic.o(x$fpl$basic) for __aeabi_dneg
    ukf_task.o(.text) refers to fabs.o(i.__hardfp_fabs) for __hardfp_fabs
    alt_kf.o(.text) refers to h1_free.o(.text) for free
    alt_kf.o(.text) refers to alt_kf.o(.data) for dataSramUsed
    alt_kf.o(.text) refers to alt_kf.o(.ccm) for ccmHeap
    alt_kf.o(.text) refers to f2d.o(x$fpl$f2d) for __aeabi_f2d
    alt_kf.o(.text) refers to ddiv.o(x$fpl$ddiv) for __aeabi_ddiv
    alt_kf.o(.text) refers to d2f.o(x$fpl$d2f) for __aeabi_d2f
    alt_kf.o(.text) refers to fliter.o(.text) for my_deathzoom1
    alt_kf.o(.text) refers to ucos_task.o(.bss) for flow_matlab_data
    alt_kf.o(.text) refers to alt_kf.o(.bss) for Distance
    alt_kf.o(.text) refers to ultrasonic.o(.text) for sonar_filter
    alt_kf.o(.text) refers to my_math.o(.text) for my_deathzoom
    alt_kf.o(.text) refers to rt_memclr_w.o(.text) for __aeabi_memclr4
    alt_kf.o(.text) refers to dmul.o(x$fpl$dmul) for __aeabi_dmul
    alt_kf.o(.text) refers to daddsub_clz.o(x$fpl$dadd) for __aeabi_dadd
    alt_kf.o(.text) refers to fabs.o(i.__hardfp_fabs) for __hardfp_fabs
    alt_kf.o(.text) refers to dleqf.o(x$fpl$dleqf) for __aeabi_cdcmple
    alt_kf.o(.text) refers to ms5611_2.o(.data) for baroAlt
    alt_kf.o(.text) refers to ultrasonic.o(.data) for ultra_distance
    alt_kf.o(.text) refers to imu_m.o(.bss) for reference_vr_imd_down
    alt_kf.o(.text) refers to mpu6050.o(.bss) for imu_fushion
    alt_kf.o(.text) refers to daddsub_clz.o(x$fpl$dsub) for __aeabi_dsub
    alt_kf.o(.text) refers to usart_fc.o(.data) for sonar_fc
    alt_kf.o(.text) refers to time.o(.text) for Get_Cycle_T
    alt_kf.o(.text) refers to drleqf.o(x$fpl$drleqf) for __aeabi_cdrcmple
    alt_kf.o(.text) refers to ucos_task.o(.data) for baro_matlab_data
    alt_kf.o(.text) refers to dflt_clz.o(x$fpl$dfltu) for __aeabi_ui2d
    alt_kf.o(.text) refers to sin.o(i.__hardfp_sin) for __hardfp_sin
    alt_kf.o(.text) refers to cos.o(i.__hardfp_cos) for __hardfp_cos
    alt_kf.o(.text) refers to imu.o(.data) for Yaw
    cycle_cal_oldx.o(.text) refers to f2d.o(x$fpl$f2d) for __aeabi_f2d
    cycle_cal_oldx.o(.text) refers to sqrt.o(i.__hardfp_sqrt) for __hardfp_sqrt
    cycle_cal_oldx.o(.text) refers to d2f.o(x$fpl$d2f) for __aeabi_d2f
    cycle_cal_oldx.o(.text) refers to fabs.o(i.__hardfp_fabs) for __hardfp_fabs
    flow.o(.text) refers to f2d.o(x$fpl$f2d) for __aeabi_f2d
    flow.o(.text) refers to flow.o(.data) for s_flow
    flow.o(.text) refers to flow.o(.bss) for flow_buf
    flow.o(.text) refers to fabs.o(i.__hardfp_fabs) for __hardfp_fabs
    flow.o(.text) refers to dleqf.o(x$fpl$dleqf) for __aeabi_cdcmple
    flow.o(.text) refers to basic.o(x$fpl$basic) for __aeabi_dneg
    flow.o(.text) refers to drleqf.o(x$fpl$drleqf) for __aeabi_cdrcmple
    flow.o(.text) refers to daddsub_clz.o(x$fpl$dsub) for __aeabi_dsub
    flow.o(.text) refers to ddiv.o(x$fpl$ddiv) for __aeabi_ddiv
    flow.o(.text) refers to dmul.o(x$fpl$dmul) for __aeabi_dmul
    flow.o(.text) refers to daddsub_clz.o(x$fpl$dadd) for __aeabi_dadd
    flow.o(.text) refers to d2f.o(x$fpl$d2f) for __aeabi_d2f
    free.o(.text) refers (Special) to hguard.o(.text) for __heap$guard
    free.o(.text) refers to rt_heap_descriptor_intlibspace.o(.text) for __rt_heap_descriptor
    free.o(.text) refers to heapstubs.o(.text) for __Heap_Free
    h1_free.o(.text) refers to rt_heap_descriptor_intlibspace.o(.text) for __rt_heap_descriptor
    h1_free_mt.o(.text) refers to rt_heap_descriptor_intlibspace.o(.text) for __rt_heap_descriptor
    heap2.o(i._FDIterate) refers to heap2.o(.conststring) for .conststring
    heap2.o(i.___Heap_ProvideMemory$realtime) refers to fdtree.o(i._FDTree_Delete) for _FDTree_Delete
    heap2.o(i.___Heap_ProvideMemory$realtime) refers to fdtree.o(i._FDTree_Insert) for _FDTree_Insert
    heap2.o(i.___Heap_Stats$realtime) refers to heap2.o(i._Heap2_StatsIterate) for _Heap2_StatsIterate
    heap2.o(i.___Heap_Valid$realtime) refers to heap2.o(i._FDIterate) for _FDIterate
    heap2.o(i.___Heap_Valid$realtime) refers to heap2.o(.conststring) for .conststring
    heap2.o(i._free$realtime) refers to rt_heap_descriptor_intlibspace.o(.text) for __rt_heap_descriptor
    heap2.o(i._free$realtime) refers to fdtree.o(i._FDTree_Delete) for _FDTree_Delete
    heap2.o(i._free$realtime) refers to fdtree.o(i._FDTree_Insert) for _FDTree_Insert
    heap2.o(i._malloc$realtime) refers to rt_heap_descriptor_intlibspace.o(.text) for __rt_heap_descriptor
    heap2.o(i._malloc$realtime) refers to fdtree.o(i._FDTree_FindFirst) for _FDTree_FindFirst
    heap2.o(i._malloc$realtime) refers to init_alloc.o(.text) for __Heap_Full
    heap2.o(i._malloc$realtime) refers to fdtree.o(i._FDTree_RemoveNode) for _FDTree_RemoveNode
    heap2.o(i._malloc$realtime) refers to fdtree.o(i._FDTree_Insert) for _FDTree_Insert
    heap2.o(i._posix_memalign$realtime) refers to rt_heap_descriptor_intlibspace.o(.text) for __rt_heap_descriptor
    heap2.o(i._posix_memalign$realtime) refers to fdtree.o(i._FDTree_FindFirst) for _FDTree_FindFirst
    heap2.o(i._posix_memalign$realtime) refers to init_alloc.o(.text) for __Heap_Full
    heap2.o(i._posix_memalign$realtime) refers to fdtree.o(i._FDTree_RemoveNode) for _FDTree_RemoveNode
    heap2.o(i._posix_memalign$realtime) refers to fdtree.o(i._FDTree_Insert) for _FDTree_Insert
    heap2.o(i._realloc$realtime) refers to rt_heap_descriptor_intlibspace.o(.text) for __rt_heap_descriptor
    heap2.o(i._realloc$realtime) refers to fdtree.o(i._FDTree_Insert) for _FDTree_Insert
    heap2.o(i._realloc$realtime) refers to h1_free.o(.text) for free
    heap2.o(i._realloc$realtime) refers to h1_alloc.o(.text) for malloc
    heap2.o(i._realloc$realtime) refers to fdtree.o(i._FDTree_Delete) for _FDTree_Delete
    heap2.o(i._realloc$realtime) refers to rt_memcpy_w.o(.text) for __aeabi_memcpy4
    heap2mt.o(i._FDIterate) refers to heap2mt.o(.conststring) for .conststring
    heap2mt.o(i.___Heap_Initialize$realtime$concurrent) refers to mutex_dummy.o(.text) for _mutex_initialize
    heap2mt.o(i.___Heap_ProvideMemory$realtime$concurrent) refers to fdtree.o(i._FDTree_Delete) for _FDTree_Delete
    heap2mt.o(i.___Heap_ProvideMemory$realtime$concurrent) refers to fdtree.o(i._FDTree_Insert) for _FDTree_Insert
    heap2mt.o(i.___Heap_Stats$realtime$concurrent) refers to heap2mt.o(i._Heap2_StatsIterate) for _Heap2_StatsIterate
    heap2mt.o(i.___Heap_Valid$realtime$concurrent) refers to heap2mt.o(i._FDIterate) for _FDIterate
    heap2mt.o(i.___Heap_Valid$realtime$concurrent) refers to heap2mt.o(.conststring) for .conststring
    heap2mt.o(i._free$realtime$concurrent) refers to rt_heap_descriptor_intlibspace.o(.text) for __rt_heap_descriptor
    heap2mt.o(i._free$realtime$concurrent) refers to fdtree.o(i._FDTree_Delete) for _FDTree_Delete
    heap2mt.o(i._free$realtime$concurrent) refers to fdtree.o(i._FDTree_Insert) for _FDTree_Insert
    heap2mt.o(i._malloc$realtime$concurrent) refers to rt_heap_descriptor_intlibspace.o(.text) for __rt_heap_descriptor
    heap2mt.o(i._malloc$realtime$concurrent) refers to fdtree.o(i._FDTree_FindFirst) for _FDTree_FindFirst
    heap2mt.o(i._malloc$realtime$concurrent) refers to init_alloc.o(.text) for __Heap_Full
    heap2mt.o(i._malloc$realtime$concurrent) refers to fdtree.o(i._FDTree_RemoveNode) for _FDTree_RemoveNode
    heap2mt.o(i._malloc$realtime$concurrent) refers to fdtree.o(i._FDTree_Insert) for _FDTree_Insert
    heap2mt.o(i._posix_memalign$realtime$concurrent) refers to rt_heap_descriptor_intlibspace.o(.text) for __rt_heap_descriptor
    heap2mt.o(i._posix_memalign$realtime$concurrent) refers to fdtree.o(i._FDTree_FindFirst) for _FDTree_FindFirst
    heap2mt.o(i._posix_memalign$realtime$concurrent) refers to init_alloc.o(.text) for __Heap_Full
    heap2mt.o(i._posix_memalign$realtime$concurrent) refers to fdtree.o(i._FDTree_RemoveNode) for _FDTree_RemoveNode
    heap2mt.o(i._posix_memalign$realtime$concurrent) refers to fdtree.o(i._FDTree_Insert) for _FDTree_Insert
    heap2mt.o(i._realloc$realtime$concurrent) refers to rt_heap_descriptor_intlibspace.o(.text) for __rt_heap_descriptor
    heap2mt.o(i._realloc$realtime$concurrent) refers to fdtree.o(i._FDTree_Insert) for _FDTree_Insert
    heap2mt.o(i._realloc$realtime$concurrent) refers to h1_free.o(.text) for free
    heap2mt.o(i._realloc$realtime$concurrent) refers to h1_alloc.o(.text) for malloc
    heap2mt.o(i._realloc$realtime$concurrent) refers to fdtree.o(i._FDTree_Delete) for _FDTree_Delete
    heap2mt.o(i._realloc$realtime$concurrent) refers to rt_memcpy_w.o(.text) for __aeabi_memcpy4
    llsdiv.o(.text) refers to lludivv7m.o(.text) for __aeabi_uldivmod
    __main.o(!!!main) refers to __rtentry.o(.ARM.Collect$$rtentry$$00000000) for __rt_entry
    basic.o(x$fpl$basic) refers (Special) to usenofp.o(x$fpl$usenofp) for __I$use$fp
    d2f.o(x$fpl$d2f) refers (Special) to usenofp.o(x$fpl$usenofp) for __I$use$fp
    d2f.o(x$fpl$d2f) refers to fretinf.o(x$fpl$fretinf) for __fpl_fretinf
    d2f.o(x$fpl$d2f) refers to dnaninf.o(x$fpl$dnaninf) for __fpl_dnaninf
    daddsub_clz.o(x$fpl$dadd) refers (Special) to usenofp.o(x$fpl$usenofp) for __I$use$fp
    daddsub_clz.o(x$fpl$dadd) refers to daddsub_clz.o(x$fpl$dsub) for _dsub1
    daddsub_clz.o(x$fpl$dadd) refers to dretinf.o(x$fpl$dretinf) for __fpl_dretinf
    daddsub_clz.o(x$fpl$dadd) refers to dnaninf.o(x$fpl$dnaninf) for __fpl_dnaninf
    daddsub_clz.o(x$fpl$drsb) refers (Special) to usenofp.o(x$fpl$usenofp) for __I$use$fp
    daddsub_clz.o(x$fpl$drsb) refers to daddsub_clz.o(x$fpl$dadd) for _dadd1
    daddsub_clz.o(x$fpl$drsb) refers to daddsub_clz.o(x$fpl$dsub) for _dsub1
    daddsub_clz.o(x$fpl$dsub) refers (Special) to usenofp.o(x$fpl$usenofp) for __I$use$fp
    daddsub_clz.o(x$fpl$dsub) refers to daddsub_clz.o(x$fpl$dadd) for _dadd1
    daddsub_clz.o(x$fpl$dsub) refers to dnaninf.o(x$fpl$dnaninf) for __fpl_dnaninf
    ddiv.o(x$fpl$drdiv) refers (Special) to usenofp.o(x$fpl$usenofp) for __I$use$fp
    ddiv.o(x$fpl$drdiv) refers to ddiv.o(x$fpl$ddiv) for ddiv_entry
    ddiv.o(x$fpl$ddiv) refers (Special) to usenofp.o(x$fpl$usenofp) for __I$use$fp
    ddiv.o(x$fpl$ddiv) refers to dretinf.o(x$fpl$dretinf) for __fpl_dretinf
    ddiv.o(x$fpl$ddiv) refers to dnaninf.o(x$fpl$dnaninf) for __fpl_dnaninf
    deqf.o(x$fpl$deqf) refers (Special) to usenofp.o(x$fpl$usenofp) for __I$use$fp
    deqf.o(x$fpl$deqf) refers to dnaninf.o(x$fpl$dnaninf) for __fpl_dnaninf
    deqf.o(x$fpl$deqf) refers to dcmpi.o(x$fpl$dcmpinf) for __fpl_dcmp_Inf
    dfix.o(x$fpl$dfix) refers (Special) to usenofp.o(x$fpl$usenofp) for __I$use$fp
    dfix.o(x$fpl$dfix) refers to dnaninf.o(x$fpl$dnaninf) for __fpl_dnaninf
    dfix.o(x$fpl$dfixr) refers (Special) to usenofp.o(x$fpl$usenofp) for __I$use$fp
    dfix.o(x$fpl$dfixr) refers to dnaninf.o(x$fpl$dnaninf) for __fpl_dnaninf
    dflt_clz.o(x$fpl$dfltu) refers (Special) to usenofp.o(x$fpl$usenofp) for __I$use$fp
    dflt_clz.o(x$fpl$dflt) refers (Special) to usenofp.o(x$fpl$usenofp) for __I$use$fp
    dflt_clz.o(x$fpl$dfltn) refers (Special) to usenofp.o(x$fpl$usenofp) for __I$use$fp
    dleqf.o(x$fpl$dleqf) refers (Special) to usenofp.o(x$fpl$usenofp) for __I$use$fp
    dleqf.o(x$fpl$dleqf) refers to dnaninf.o(x$fpl$dnaninf) for __fpl_dnaninf
    dleqf.o(x$fpl$dleqf) refers to dcmpi.o(x$fpl$dcmpinf) for __fpl_dcmp_Inf
    dmul.o(x$fpl$dmul) refers (Special) to usenofp.o(x$fpl$usenofp) for __I$use$fp
    dmul.o(x$fpl$dmul) refers to dretinf.o(x$fpl$dretinf) for __fpl_dretinf
    dmul.o(x$fpl$dmul) refers to dnaninf.o(x$fpl$dnaninf) for __fpl_dnaninf
    drleqf.o(x$fpl$drleqf) refers (Special) to usenofp.o(x$fpl$usenofp) for __I$use$fp
    drleqf.o(x$fpl$drleqf) refers to dleqf.o(x$fpl$dleqf) for __fpl_dcmple_InfNaN
    f2d.o(x$fpl$f2d) refers (Special) to usenofp.o(x$fpl$usenofp) for __I$use$fp
    f2d.o(x$fpl$f2d) refers to fnaninf.o(x$fpl$fnaninf) for __fpl_fnaninf
    f2d.o(x$fpl$f2d) refers to dretinf.o(x$fpl$dretinf) for __fpl_dretinf
    ffltll_clz.o(x$fpl$ffltll) refers (Special) to usenofp.o(x$fpl$usenofp) for __I$use$fp
    acos.o(i.__hardfp_acos) refers (Special) to usenofp.o(x$fpl$usenofp) for __I$use$fp
    acos.o(i.__hardfp_acos) refers to dunder.o(i.__mathlib_dbl_infnan) for __mathlib_dbl_infnan
    acos.o(i.__hardfp_acos) refers to _rserrno.o(.text) for __set_errno
    acos.o(i.__hardfp_acos) refers to dunder.o(i.__mathlib_dbl_invalid) for __mathlib_dbl_invalid
    acos.o(i.__hardfp_acos) refers to dmul.o(x$fpl$dmul) for __aeabi_dmul
    acos.o(i.__hardfp_acos) refers to poly.o(i.__kernel_poly) for __kernel_poly
    acos.o(i.__hardfp_acos) refers to daddsub_clz.o(x$fpl$dadd) for __aeabi_dadd
    acos.o(i.__hardfp_acos) refers to ddiv.o(x$fpl$ddiv) for __aeabi_ddiv
    acos.o(i.__hardfp_acos) refers to daddsub_clz.o(x$fpl$drsb) for __aeabi_drsub
    acos.o(i.__hardfp_acos) refers to sqrt.o(i.sqrt) for sqrt
    acos.o(i.__hardfp_acos) refers to daddsub_clz.o(x$fpl$dsub) for __aeabi_dsub
    acos.o(i.__hardfp_acos) refers to acos.o(.constdata) for .constdata
    acos.o(i.__softfp_acos) refers (Special) to usenofp.o(x$fpl$usenofp) for __I$use$fp
    acos.o(i.__softfp_acos) refers to acos.o(i.__hardfp_acos) for __hardfp_acos
    acos.o(i.acos) refers (Special) to usenofp.o(x$fpl$usenofp) for __I$use$fp
    acos.o(i.acos) refers to acos.o(i.__hardfp_acos) for __hardfp_acos
    acos.o(.constdata) refers (Special) to usenofp.o(x$fpl$usenofp) for __I$use$fp
    acos_x.o(i.____hardfp_acos$lsc) refers (Special) to usenofp.o(x$fpl$usenofp) for __I$use$fp
    acos_x.o(i.____hardfp_acos$lsc) refers to dunder.o(i.__mathlib_dbl_infnan) for __mathlib_dbl_infnan
    acos_x.o(i.____hardfp_acos$lsc) refers to _rserrno.o(.text) for __set_errno
    acos_x.o(i.____hardfp_acos$lsc) refers to dmul.o(x$fpl$dmul) for __aeabi_dmul
    acos_x.o(i.____hardfp_acos$lsc) refers to poly.o(i.__kernel_poly) for __kernel_poly
    acos_x.o(i.____hardfp_acos$lsc) refers to daddsub_clz.o(x$fpl$dadd) for __aeabi_dadd
    acos_x.o(i.____hardfp_acos$lsc) refers to ddiv.o(x$fpl$ddiv) for __aeabi_ddiv
    acos_x.o(i.____hardfp_acos$lsc) refers to daddsub_clz.o(x$fpl$drsb) for __aeabi_drsub
    acos_x.o(i.____hardfp_acos$lsc) refers to sqrt.o(i.sqrt) for sqrt
    acos_x.o(i.____hardfp_acos$lsc) refers to daddsub_clz.o(x$fpl$dsub) for __aeabi_dsub
    acos_x.o(i.____hardfp_acos$lsc) refers to acos_x.o(.constdata) for .constdata
    acos_x.o(i.____softfp_acos$lsc) refers (Special) to usenofp.o(x$fpl$usenofp) for __I$use$fp
    acos_x.o(i.____softfp_acos$lsc) refers to acos_x.o(i.____hardfp_acos$lsc) for ____hardfp_acos$lsc
    acos_x.o(i.__acos$lsc) refers (Special) to usenofp.o(x$fpl$usenofp) for __I$use$fp
    acos_x.o(i.__acos$lsc) refers to acos_x.o(i.____hardfp_acos$lsc) for ____hardfp_acos$lsc
    acos_x.o(.constdata) refers (Special) to usenofp.o(x$fpl$usenofp) for __I$use$fp
    asin.o(i.__hardfp_asin) refers (Special) to usenofp.o(x$fpl$usenofp) for __I$use$fp
    asin.o(i.__hardfp_asin) refers to dunder.o(i.__mathlib_dbl_infnan) for __mathlib_dbl_infnan
    asin.o(i.__hardfp_asin) refers to dmul.o(x$fpl$dmul) for __aeabi_dmul
    asin.o(i.__hardfp_asin) refers to daddsub_clz.o(x$fpl$dadd) for __aeabi_dadd
    asin.o(i.__hardfp_asin) refers to _rserrno.o(.text) for __set_errno
    asin.o(i.__hardfp_asin) refers to dunder.o(i.__mathlib_dbl_invalid) for __mathlib_dbl_invalid
    asin.o(i.__hardfp_asin) refers to fpclassify.o(i.__ARM_fpclassify) for __ARM_fpclassify
    asin.o(i.__hardfp_asin) refers to dunder.o(i.__mathlib_dbl_underflow) for __mathlib_dbl_underflow
    asin.o(i.__hardfp_asin) refers to poly.o(i.__kernel_poly) for __kernel_poly
    asin.o(i.__hardfp_asin) refers to ddiv.o(x$fpl$ddiv) for __aeabi_ddiv
    asin.o(i.__hardfp_asin) refers to fabs.o(i.fabs) for fabs
    asin.o(i.__hardfp_asin) refers to daddsub_clz.o(x$fpl$drsb) for __aeabi_drsub
    asin.o(i.__hardfp_asin) refers to sqrt.o(i.sqrt) for sqrt
    asin.o(i.__hardfp_asin) refers to daddsub_clz.o(x$fpl$dsub) for __aeabi_dsub
    asin.o(i.__hardfp_asin) refers to basic.o(x$fpl$basic) for __aeabi_dneg
    asin.o(i.__hardfp_asin) refers to asin.o(.constdata) for .constdata
    asin.o(i.__softfp_asin) refers (Special) to usenofp.o(x$fpl$usenofp) for __I$use$fp
    asin.o(i.__softfp_asin) refers to asin.o(i.__hardfp_asin) for __hardfp_asin
    asin.o(i.asin) refers (Special) to usenofp.o(x$fpl$usenofp) for __I$use$fp
    asin.o(i.asin) refers to asin.o(i.__hardfp_asin) for __hardfp_asin
    asin.o(.constdata) refers (Special) to usenofp.o(x$fpl$usenofp) for __I$use$fp
    asin_x.o(i.____hardfp_asin$lsc) refers (Special) to usenofp.o(x$fpl$usenofp) for __I$use$fp
    asin_x.o(i.____hardfp_asin$lsc) refers to dunder.o(i.__mathlib_dbl_infnan) for __mathlib_dbl_infnan
    asin_x.o(i.____hardfp_asin$lsc) refers to dmul.o(x$fpl$dmul) for __aeabi_dmul
    asin_x.o(i.____hardfp_asin$lsc) refers to daddsub_clz.o(x$fpl$dadd) for __aeabi_dadd
    asin_x.o(i.____hardfp_asin$lsc) refers to _rserrno.o(.text) for __set_errno
    asin_x.o(i.____hardfp_asin$lsc) refers to poly.o(i.__kernel_poly) for __kernel_poly
    asin_x.o(i.____hardfp_asin$lsc) refers to ddiv.o(x$fpl$ddiv) for __aeabi_ddiv
    asin_x.o(i.____hardfp_asin$lsc) refers to fabs.o(i.fabs) for fabs
    asin_x.o(i.____hardfp_asin$lsc) refers to daddsub_clz.o(x$fpl$drsb) for __aeabi_drsub
    asin_x.o(i.____hardfp_asin$lsc) refers to sqrt.o(i.sqrt) for sqrt
    asin_x.o(i.____hardfp_asin$lsc) refers to daddsub_clz.o(x$fpl$dsub) for __aeabi_dsub
    asin_x.o(i.____hardfp_asin$lsc) refers to basic.o(x$fpl$basic) for __aeabi_dneg
    asin_x.o(i.____hardfp_asin$lsc) refers to asin_x.o(.constdata) for .constdata
    asin_x.o(i.____softfp_asin$lsc) refers (Special) to usenofp.o(x$fpl$usenofp) for __I$use$fp
    asin_x.o(i.____softfp_asin$lsc) refers to asin_x.o(i.____hardfp_asin$lsc) for ____hardfp_asin$lsc
    asin_x.o(i.__asin$lsc) refers (Special) to usenofp.o(x$fpl$usenofp) for __I$use$fp
    asin_x.o(i.__asin$lsc) refers to asin_x.o(i.____hardfp_asin$lsc) for ____hardfp_asin$lsc
    asin_x.o(.constdata) refers (Special) to usenofp.o(x$fpl$usenofp) for __I$use$fp
    asinf.o(i.__hardfp_asinf) refers (Special) to usenofp.o(x$fpl$usenofp) for __I$use$fp
    asinf.o(i.__hardfp_asinf) refers to sqrtf.o(i.sqrtf) for sqrtf
    asinf.o(i.__hardfp_asinf) refers to fpclassifyf.o(i.__ARM_fpclassifyf) for __ARM_fpclassifyf
    asinf.o(i.__hardfp_asinf) refers to funder.o(i.__mathlib_flt_underflow) for __mathlib_flt_underflow
    asinf.o(i.__hardfp_asinf) refers to funder.o(i.__mathlib_flt_infnan) for __mathlib_flt_infnan
    asinf.o(i.__hardfp_asinf) refers to _rserrno.o(.text) for __set_errno
    asinf.o(i.__hardfp_asinf) refers to funder.o(i.__mathlib_flt_invalid) for __mathlib_flt_invalid
    asinf.o(i.__softfp_asinf) refers (Special) to usenofp.o(x$fpl$usenofp) for __I$use$fp
    asinf.o(i.__softfp_asinf) refers to asinf.o(i.__hardfp_asinf) for __hardfp_asinf
    asinf.o(i.asinf) refers (Special) to usenofp.o(x$fpl$usenofp) for __I$use$fp
    asinf.o(i.asinf) refers to asinf.o(i.__hardfp_asinf) for __hardfp_asinf
    asinf_x.o(i.____hardfp_asinf$lsc) refers (Special) to usenofp.o(x$fpl$usenofp) for __I$use$fp
    asinf_x.o(i.____hardfp_asinf$lsc) refers to sqrtf.o(i.sqrtf) for sqrtf
    asinf_x.o(i.____hardfp_asinf$lsc) refers to funder.o(i.__mathlib_flt_infnan) for __mathlib_flt_infnan
    asinf_x.o(i.____hardfp_asinf$lsc) refers to _rserrno.o(.text) for __set_errno
    asinf_x.o(i.____softfp_asinf$lsc) refers (Special) to usenofp.o(x$fpl$usenofp) for __I$use$fp
    asinf_x.o(i.____softfp_asinf$lsc) refers to asinf_x.o(i.____hardfp_asinf$lsc) for ____hardfp_asinf$lsc
    asinf_x.o(i.__asinf$lsc) refers (Special) to usenofp.o(x$fpl$usenofp) for __I$use$fp
    asinf_x.o(i.__asinf$lsc) refers to asinf_x.o(i.____hardfp_asinf$lsc) for ____hardfp_asinf$lsc
    atan2f.o(i.__hardfp_atan2f) refers (Special) to usenofp.o(x$fpl$usenofp) for __I$use$fp
    atan2f.o(i.__hardfp_atan2f) refers to fpclassifyf.o(i.__ARM_fpclassifyf) for __ARM_fpclassifyf
    atan2f.o(i.__hardfp_atan2f) refers to funder.o(i.__mathlib_flt_underflow) for __mathlib_flt_underflow
    atan2f.o(i.__hardfp_atan2f) refers to funder.o(i.__mathlib_flt_infnan2) for __mathlib_flt_infnan2
    atan2f.o(i.__softfp_atan2f) refers (Special) to usenofp.o(x$fpl$usenofp) for __I$use$fp
    atan2f.o(i.__softfp_atan2f) refers to atan2f.o(i.__hardfp_atan2f) for __hardfp_atan2f
    atan2f.o(i.atan2f) refers (Special) to usenofp.o(x$fpl$usenofp) for __I$use$fp
    atan2f.o(i.atan2f) refers to atan2f.o(i.__hardfp_atan2f) for __hardfp_atan2f
    atan2f_x.o(i.____hardfp_atan2f$lsc) refers (Special) to usenofp.o(x$fpl$usenofp) for __I$use$fp
    atan2f_x.o(i.____hardfp_atan2f$lsc) refers to funder.o(i.__mathlib_flt_infnan2) for __mathlib_flt_infnan2
    atan2f_x.o(i.____hardfp_atan2f$lsc) refers to _rserrno.o(.text) for __set_errno
    atan2f_x.o(i.____softfp_atan2f$lsc) refers (Special) to usenofp.o(x$fpl$usenofp) for __I$use$fp
    atan2f_x.o(i.____softfp_atan2f$lsc) refers to atan2f_x.o(i.____hardfp_atan2f$lsc) for ____hardfp_atan2f$lsc
    atan2f_x.o(i.__atan2f$lsc) refers (Special) to usenofp.o(x$fpl$usenofp) for __I$use$fp
    atan2f_x.o(i.__atan2f$lsc) refers to atan2f_x.o(i.____hardfp_atan2f$lsc) for ____hardfp_atan2f$lsc
    atanf.o(i.__hardfp_atanf) refers (Special) to usenofp.o(x$fpl$usenofp) for __I$use$fp
    atanf.o(i.__hardfp_atanf) refers to fpclassifyf.o(i.__ARM_fpclassifyf) for __ARM_fpclassifyf
    atanf.o(i.__hardfp_atanf) refers to funder.o(i.__mathlib_flt_underflow) for __mathlib_flt_underflow
    atanf.o(i.__hardfp_atanf) refers to funder.o(i.__mathlib_flt_infnan) for __mathlib_flt_infnan
    atanf.o(i.__softfp_atanf) refers (Special) to usenofp.o(x$fpl$usenofp) for __I$use$fp
    atanf.o(i.__softfp_atanf) refers to atanf.o(i.__hardfp_atanf) for __hardfp_atanf
    atanf.o(i.atanf) refers (Special) to usenofp.o(x$fpl$usenofp) for __I$use$fp
    atanf.o(i.atanf) refers to atanf.o(i.__hardfp_atanf) for __hardfp_atanf
    atanf_x.o(i.____hardfp_atanf$lsc) refers (Special) to usenofp.o(x$fpl$usenofp) for __I$use$fp
    atanf_x.o(i.____hardfp_atanf$lsc) refers to funder.o(i.__mathlib_flt_infnan) for __mathlib_flt_infnan
    atanf_x.o(i.____softfp_atanf$lsc) refers (Special) to usenofp.o(x$fpl$usenofp) for __I$use$fp
    atanf_x.o(i.____softfp_atanf$lsc) refers to atanf_x.o(i.____hardfp_atanf$lsc) for ____hardfp_atanf$lsc
    atanf_x.o(i.__atanf$lsc) refers (Special) to usenofp.o(x$fpl$usenofp) for __I$use$fp
    atanf_x.o(i.__atanf$lsc) refers to atanf_x.o(i.____hardfp_atanf$lsc) for ____hardfp_atanf$lsc
    cos.o(i.__hardfp_cos) refers (Special) to usenofp.o(x$fpl$usenofp) for __I$use$fp
    cos.o(i.__hardfp_cos) refers to _rserrno.o(.text) for __set_errno
    cos.o(i.__hardfp_cos) refers to dunder.o(i.__mathlib_dbl_invalid) for __mathlib_dbl_invalid
    cos.o(i.__hardfp_cos) refers to dunder.o(i.__mathlib_dbl_infnan) for __mathlib_dbl_infnan
    cos.o(i.__hardfp_cos) refers to rred.o(i.__ieee754_rem_pio2) for __ieee754_rem_pio2
    cos.o(i.__hardfp_cos) refers to sin_i.o(i.__kernel_sin) for __kernel_sin
    cos.o(i.__hardfp_cos) refers to cos_i.o(i.__kernel_cos) for __kernel_cos
    cos.o(i.__hardfp_cos) refers to basic.o(x$fpl$basic) for __aeabi_dneg
    cos.o(i.__softfp_cos) refers (Special) to usenofp.o(x$fpl$usenofp) for __I$use$fp
    cos.o(i.__softfp_cos) refers to cos.o(i.__hardfp_cos) for __hardfp_cos
    cos.o(i.cos) refers (Special) to usenofp.o(x$fpl$usenofp) for __I$use$fp
    cos.o(i.cos) refers to cos.o(i.__hardfp_cos) for __hardfp_cos
    cos_x.o(i.____hardfp_cos$lsc) refers (Special) to usenofp.o(x$fpl$usenofp) for __I$use$fp
    cos_x.o(i.____hardfp_cos$lsc) refers to _rserrno.o(.text) for __set_errno
    cos_x.o(i.____hardfp_cos$lsc) refers to dunder.o(i.__mathlib_dbl_infnan) for __mathlib_dbl_infnan
    cos_x.o(i.____hardfp_cos$lsc) refers to rred.o(i.__ieee754_rem_pio2) for __ieee754_rem_pio2
    cos_x.o(i.____hardfp_cos$lsc) refers to sin_i.o(i.__kernel_sin) for __kernel_sin
    cos_x.o(i.____hardfp_cos$lsc) refers to cos_i.o(i.__kernel_cos) for __kernel_cos
    cos_x.o(i.____hardfp_cos$lsc) refers to basic.o(x$fpl$basic) for __aeabi_dneg
    cos_x.o(i.____softfp_cos$lsc) refers (Special) to usenofp.o(x$fpl$usenofp) for __I$use$fp
    cos_x.o(i.____softfp_cos$lsc) refers to cos_x.o(i.____hardfp_cos$lsc) for ____hardfp_cos$lsc
    cos_x.o(i.__cos$lsc) refers (Special) to usenofp.o(x$fpl$usenofp) for __I$use$fp
    cos_x.o(i.__cos$lsc) refers to cos_x.o(i.____hardfp_cos$lsc) for ____hardfp_cos$lsc
    cosf.o(i.__hardfp_cosf) refers (Special) to usenofp.o(x$fpl$usenofp) for __I$use$fp
    cosf.o(i.__hardfp_cosf) refers to rredf.o(i.__mathlib_rredf2) for __mathlib_rredf2
    cosf.o(i.__hardfp_cosf) refers to _rserrno.o(.text) for __set_errno
    cosf.o(i.__hardfp_cosf) refers to funder.o(i.__mathlib_flt_invalid) for __mathlib_flt_invalid
    cosf.o(i.__hardfp_cosf) refers to funder.o(i.__mathlib_flt_infnan) for __mathlib_flt_infnan
    cosf.o(i.__softfp_cosf) refers (Special) to usenofp.o(x$fpl$usenofp) for __I$use$fp
    cosf.o(i.__softfp_cosf) refers to cosf.o(i.__hardfp_cosf) for __hardfp_cosf
    cosf.o(i.cosf) refers (Special) to usenofp.o(x$fpl$usenofp) for __I$use$fp
    cosf.o(i.cosf) refers to cosf.o(i.__hardfp_cosf) for __hardfp_cosf
    cosf_x.o(i.____hardfp_cosf$lsc) refers (Special) to usenofp.o(x$fpl$usenofp) for __I$use$fp
    cosf_x.o(i.____hardfp_cosf$lsc) refers to rredf.o(i.__mathlib_rredf2) for __mathlib_rredf2
    cosf_x.o(i.____hardfp_cosf$lsc) refers to _rserrno.o(.text) for __set_errno
    cosf_x.o(i.____hardfp_cosf$lsc) refers to funder.o(i.__mathlib_flt_infnan) for __mathlib_flt_infnan
    cosf_x.o(i.____softfp_cosf$lsc) refers (Special) to usenofp.o(x$fpl$usenofp) for __I$use$fp
    cosf_x.o(i.____softfp_cosf$lsc) refers to cosf_x.o(i.____hardfp_cosf$lsc) for ____hardfp_cosf$lsc
    cosf_x.o(i.__cosf$lsc) refers (Special) to usenofp.o(x$fpl$usenofp) for __I$use$fp
    cosf_x.o(i.__cosf$lsc) refers to cosf_x.o(i.____hardfp_cosf$lsc) for ____hardfp_cosf$lsc
    fabs.o(i.__hardfp_fabs) refers (Special) to usenofp.o(x$fpl$usenofp) for __I$use$fp
    fabs.o(i.__softfp_fabs) refers (Special) to usenofp.o(x$fpl$usenofp) for __I$use$fp
    fabs.o(i.fabs) refers (Special) to usenofp.o(x$fpl$usenofp) for __I$use$fp
    floor.o(i.__hardfp_floor) refers (Special) to usenofp.o(x$fpl$usenofp) for __I$use$fp
    floor.o(i.__hardfp_floor) refers to daddsub_clz.o(x$fpl$dadd) for __aeabi_dadd
    floor.o(i.__hardfp_floor) refers to drleqf.o(x$fpl$drleqf) for __aeabi_cdrcmple
    floor.o(i.__hardfp_floor) refers to daddsub_clz.o(x$fpl$drsb) for __aeabi_drsub
    floor.o(i.__softfp_floor) refers (Special) to usenofp.o(x$fpl$usenofp) for __I$use$fp
    floor.o(i.__softfp_floor) refers to floor.o(i.__hardfp_floor) for __hardfp_floor
    floor.o(i.floor) refers (Special) to usenofp.o(x$fpl$usenofp) for __I$use$fp
    floor.o(i.floor) refers to floor.o(i.__hardfp_floor) for __hardfp_floor
    pow.o(i.__hardfp_pow) refers (Special) to usenofp.o(x$fpl$usenofp) for __I$use$fp
    pow.o(i.__hardfp_pow) refers to dunder.o(i.__mathlib_dbl_infnan2) for __mathlib_dbl_infnan2
    pow.o(i.__hardfp_pow) refers to _rserrno.o(.text) for __set_errno
    pow.o(i.__hardfp_pow) refers to dunder.o(i.__mathlib_dbl_divzero) for __mathlib_dbl_divzero
    pow.o(i.__hardfp_pow) refers to basic.o(x$fpl$basic) for __aeabi_dneg
    pow.o(i.__hardfp_pow) refers to dunder.o(i.__mathlib_dbl_overflow) for __mathlib_dbl_overflow
    pow.o(i.__hardfp_pow) refers to ddiv.o(x$fpl$ddiv) for __aeabi_ddiv
    pow.o(i.__hardfp_pow) refers to sqrt.o(i.sqrt) for sqrt
    pow.o(i.__hardfp_pow) refers to fabs.o(i.fabs) for fabs
    pow.o(i.__hardfp_pow) refers to dflt_clz.o(x$fpl$dflt) for __aeabi_i2d
    pow.o(i.__hardfp_pow) refers to dunder.o(i.__mathlib_dbl_invalid) for __mathlib_dbl_invalid
    pow.o(i.__hardfp_pow) refers to dmul.o(x$fpl$dmul) for __aeabi_dmul
    pow.o(i.__hardfp_pow) refers to dunder.o(i.__mathlib_dbl_underflow) for __mathlib_dbl_underflow
    pow.o(i.__hardfp_pow) refers to daddsub_clz.o(x$fpl$dsub) for __aeabi_dsub
    pow.o(i.__hardfp_pow) refers to daddsub_clz.o(x$fpl$drsb) for __aeabi_drsub
    pow.o(i.__hardfp_pow) refers to qnan.o(.constdata) for __mathlib_zero
    pow.o(i.__hardfp_pow) refers to daddsub_clz.o(x$fpl$dadd) for __aeabi_dadd
    pow.o(i.__hardfp_pow) refers to poly.o(i.__kernel_poly) for __kernel_poly
    pow.o(i.__hardfp_pow) refers to pow.o(.constdata) for .constdata
    pow.o(i.__hardfp_pow) refers to drleqf.o(x$fpl$drleqf) for __aeabi_cdrcmple
    pow.o(i.__hardfp_pow) refers to scalbn.o(x$fpl$scalbn) for __ARM_scalbn
    pow.o(i.__hardfp_pow) refers to fpclassify.o(i.__ARM_fpclassify) for __ARM_fpclassify
    pow.o(i.__softfp_pow) refers (Special) to usenofp.o(x$fpl$usenofp) for __I$use$fp
    pow.o(i.__softfp_pow) refers to pow.o(i.__hardfp_pow) for __hardfp_pow
    pow.o(i.pow) refers (Special) to usenofp.o(x$fpl$usenofp) for __I$use$fp
    pow.o(i.pow) refers to pow.o(i.__hardfp_pow) for __hardfp_pow
    pow.o(.constdata) refers (Special) to usenofp.o(x$fpl$usenofp) for __I$use$fp
    pow_x.o(i.____hardfp_pow$lsc) refers (Special) to usenofp.o(x$fpl$usenofp) for __I$use$fp
    pow_x.o(i.____hardfp_pow$lsc) refers to dunder.o(i.__mathlib_dbl_infnan2) for __mathlib_dbl_infnan2
    pow_x.o(i.____hardfp_pow$lsc) refers to _rserrno.o(.text) for __set_errno
    pow_x.o(i.____hardfp_pow$lsc) refers to basic.o(x$fpl$basic) for __aeabi_dneg
    pow_x.o(i.____hardfp_pow$lsc) refers to ddiv.o(x$fpl$ddiv) for __aeabi_ddiv
    pow_x.o(i.____hardfp_pow$lsc) refers to sqrt.o(i.sqrt) for sqrt
    pow_x.o(i.____hardfp_pow$lsc) refers to fabs.o(i.fabs) for fabs
    pow_x.o(i.____hardfp_pow$lsc) refers to dflt_clz.o(x$fpl$dflt) for __aeabi_i2d
    pow_x.o(i.____hardfp_pow$lsc) refers to dmul.o(x$fpl$dmul) for __aeabi_dmul
    pow_x.o(i.____hardfp_pow$lsc) refers to daddsub_clz.o(x$fpl$dsub) for __aeabi_dsub
    pow_x.o(i.____hardfp_pow$lsc) refers to daddsub_clz.o(x$fpl$drsb) for __aeabi_drsub
    pow_x.o(i.____hardfp_pow$lsc) refers to qnan.o(.constdata) for __mathlib_zero
    pow_x.o(i.____hardfp_pow$lsc) refers to daddsub_clz.o(x$fpl$dadd) for __aeabi_dadd
    pow_x.o(i.____hardfp_pow$lsc) refers to poly.o(i.__kernel_poly) for __kernel_poly
    pow_x.o(i.____hardfp_pow$lsc) refers to pow_x.o(.constdata) for .constdata
    pow_x.o(i.____hardfp_pow$lsc) refers to drleqf.o(x$fpl$drleqf) for __aeabi_cdrcmple
    pow_x.o(i.____hardfp_pow$lsc) refers to scalbn.o(x$fpl$scalbn) for __ARM_scalbn
    pow_x.o(i.____softfp_pow$lsc) refers (Special) to usenofp.o(x$fpl$usenofp) for __I$use$fp
    pow_x.o(i.____softfp_pow$lsc) refers to pow_x.o(i.____hardfp_pow$lsc) for ____hardfp_pow$lsc
    pow_x.o(i.__pow$lsc) refers (Special) to usenofp.o(x$fpl$usenofp) for __I$use$fp
    pow_x.o(i.__pow$lsc) refers to pow_x.o(i.____hardfp_pow$lsc) for ____hardfp_pow$lsc
    pow_x.o(.constdata) refers (Special) to usenofp.o(x$fpl$usenofp) for __I$use$fp
    powf.o(i.__hardfp_powf) refers (Special) to usenofp.o(x$fpl$usenofp) for __I$use$fp
    powf.o(i.__hardfp_powf) refers to _rserrno.o(.text) for __set_errno
    powf.o(i.__hardfp_powf) refers to funder.o(i.__mathlib_flt_overflow) for __mathlib_flt_overflow
    powf.o(i.__hardfp_powf) refers to fpclassifyf.o(i.__ARM_fpclassifyf) for __ARM_fpclassifyf
    powf.o(i.__hardfp_powf) refers to funder.o(i.__mathlib_flt_underflow) for __mathlib_flt_underflow
    powf.o(i.__hardfp_powf) refers to funder.o(i.__mathlib_flt_invalid) for __mathlib_flt_invalid
    powf.o(i.__hardfp_powf) refers to powf.o(.constdata) for .constdata
    powf.o(i.__hardfp_powf) refers to funder.o(i.__mathlib_flt_infnan2) for __mathlib_flt_infnan2
    powf.o(i.__hardfp_powf) refers to funder.o(i.__mathlib_flt_divzero) for __mathlib_flt_divzero
    powf.o(i.__softfp_powf) refers (Special) to usenofp.o(x$fpl$usenofp) for __I$use$fp
    powf.o(i.__softfp_powf) refers to powf.o(i.__hardfp_powf) for __hardfp_powf
    powf.o(i.powf) refers (Special) to usenofp.o(x$fpl$usenofp) for __I$use$fp
    powf.o(i.powf) refers to powf.o(i.__hardfp_powf) for __hardfp_powf
    powf.o(.constdata) refers (Special) to usenofp.o(x$fpl$usenofp) for __I$use$fp
    powf_x.o(i.____hardfp_powf$lsc) refers (Special) to usenofp.o(x$fpl$usenofp) for __I$use$fp
    powf_x.o(i.____hardfp_powf$lsc) refers to _rserrno.o(.text) for __set_errno
    powf_x.o(i.____hardfp_powf$lsc) refers to powf_x.o(.constdata) for .constdata
    powf_x.o(i.____hardfp_powf$lsc) refers to funder.o(i.__mathlib_flt_infnan2) for __mathlib_flt_infnan2
    powf_x.o(i.____softfp_powf$lsc) refers (Special) to usenofp.o(x$fpl$usenofp) for __I$use$fp
    powf_x.o(i.____softfp_powf$lsc) refers to powf_x.o(i.____hardfp_powf$lsc) for ____hardfp_powf$lsc
    powf_x.o(i.__powf$lsc) refers (Special) to usenofp.o(x$fpl$usenofp) for __I$use$fp
    powf_x.o(i.__powf$lsc) refers to powf_x.o(i.____hardfp_powf$lsc) for ____hardfp_powf$lsc
    powf_x.o(.constdata) refers (Special) to usenofp.o(x$fpl$usenofp) for __I$use$fp
    sin.o(i.__hardfp_sin) refers (Special) to usenofp.o(x$fpl$usenofp) for __I$use$fp
    sin.o(i.__hardfp_sin) refers to _rserrno.o(.text) for __set_errno
    sin.o(i.__hardfp_sin) refers to dunder.o(i.__mathlib_dbl_invalid) for __mathlib_dbl_invalid
    sin.o(i.__hardfp_sin) refers to dunder.o(i.__mathlib_dbl_infnan) for __mathlib_dbl_infnan
    sin.o(i.__hardfp_sin) refers to rred.o(i.__ieee754_rem_pio2) for __ieee754_rem_pio2
    sin.o(i.__hardfp_sin) refers to cos_i.o(i.__kernel_cos) for __kernel_cos
    sin.o(i.__hardfp_sin) refers to basic.o(x$fpl$basic) for __aeabi_dneg
    sin.o(i.__hardfp_sin) refers to sin_i.o(i.__kernel_sin) for __kernel_sin
    sin.o(i.__softfp_sin) refers (Special) to usenofp.o(x$fpl$usenofp) for __I$use$fp
    sin.o(i.__softfp_sin) refers to sin.o(i.__hardfp_sin) for __hardfp_sin
    sin.o(i.sin) refers (Special) to usenofp.o(x$fpl$usenofp) for __I$use$fp
    sin.o(i.sin) refers to sin.o(i.__hardfp_sin) for __hardfp_sin
    sin_x.o(i.____hardfp_sin$lsc) refers (Special) to usenofp.o(x$fpl$usenofp) for __I$use$fp
    sin_x.o(i.____hardfp_sin$lsc) refers to _rserrno.o(.text) for __set_errno
    sin_x.o(i.____hardfp_sin$lsc) refers to dunder.o(i.__mathlib_dbl_infnan) for __mathlib_dbl_infnan
    sin_x.o(i.____hardfp_sin$lsc) refers to rred.o(i.__ieee754_rem_pio2) for __ieee754_rem_pio2
    sin_x.o(i.____hardfp_sin$lsc) refers to cos_i.o(i.__kernel_cos) for __kernel_cos
    sin_x.o(i.____hardfp_sin$lsc) refers to basic.o(x$fpl$basic) for __aeabi_dneg
    sin_x.o(i.____hardfp_sin$lsc) refers to sin_i.o(i.__kernel_sin) for __kernel_sin
    sin_x.o(i.____softfp_sin$lsc) refers (Special) to usenofp.o(x$fpl$usenofp) for __I$use$fp
    sin_x.o(i.____softfp_sin$lsc) refers to sin_x.o(i.____hardfp_sin$lsc) for ____hardfp_sin$lsc
    sin_x.o(i.__sin$lsc) refers (Special) to usenofp.o(x$fpl$usenofp) for __I$use$fp
    sin_x.o(i.__sin$lsc) refers to sin_x.o(i.____hardfp_sin$lsc) for ____hardfp_sin$lsc
    sinf.o(i.__hardfp_sinf) refers (Special) to usenofp.o(x$fpl$usenofp) for __I$use$fp
    sinf.o(i.__hardfp_sinf) refers to rredf.o(i.__mathlib_rredf2) for __mathlib_rredf2
    sinf.o(i.__hardfp_sinf) refers to fpclassifyf.o(i.__ARM_fpclassifyf) for __ARM_fpclassifyf
    sinf.o(i.__hardfp_sinf) refers to funder.o(i.__mathlib_flt_underflow) for __mathlib_flt_underflow
    sinf.o(i.__hardfp_sinf) refers to _rserrno.o(.text) for __set_errno
    sinf.o(i.__hardfp_sinf) refers to funder.o(i.__mathlib_flt_invalid) for __mathlib_flt_invalid
    sinf.o(i.__hardfp_sinf) refers to funder.o(i.__mathlib_flt_infnan) for __mathlib_flt_infnan
    sinf.o(i.__softfp_sinf) refers (Special) to usenofp.o(x$fpl$usenofp) for __I$use$fp
    sinf.o(i.__softfp_sinf) refers to sinf.o(i.__hardfp_sinf) for __hardfp_sinf
    sinf.o(i.sinf) refers (Special) to usenofp.o(x$fpl$usenofp) for __I$use$fp
    sinf.o(i.sinf) refers to sinf.o(i.__hardfp_sinf) for __hardfp_sinf
    sinf_x.o(i.____hardfp_sinf$lsc) refers (Special) to usenofp.o(x$fpl$usenofp) for __I$use$fp
    sinf_x.o(i.____hardfp_sinf$lsc) refers to rredf.o(i.__mathlib_rredf2) for __mathlib_rredf2
    sinf_x.o(i.____hardfp_sinf$lsc) refers to _rserrno.o(.text) for __set_errno
    sinf_x.o(i.____hardfp_sinf$lsc) refers to funder.o(i.__mathlib_flt_infnan) for __mathlib_flt_infnan
    sinf_x.o(i.____softfp_sinf$lsc) refers (Special) to usenofp.o(x$fpl$usenofp) for __I$use$fp
    sinf_x.o(i.____softfp_sinf$lsc) refers to sinf_x.o(i.____hardfp_sinf$lsc) for ____hardfp_sinf$lsc
    sinf_x.o(i.__sinf$lsc) refers (Special) to usenofp.o(x$fpl$usenofp) for __I$use$fp
    sinf_x.o(i.__sinf$lsc) refers to sinf_x.o(i.____hardfp_sinf$lsc) for ____hardfp_sinf$lsc
    sqrt.o(i.__hardfp_sqrt) refers (Special) to usenofp.o(x$fpl$usenofp) for __I$use$fp
    sqrt.o(i.__hardfp_sqrt) refers to dsqrt_umaal.o(x$fpl$dsqrt) for _dsqrt
    sqrt.o(i.__hardfp_sqrt) refers to _rserrno.o(.text) for __set_errno
    sqrt.o(i.__softfp_sqrt) refers (Special) to usenofp.o(x$fpl$usenofp) for __I$use$fp
    sqrt.o(i.__softfp_sqrt) refers to dsqrt_umaal.o(x$fpl$dsqrt) for _dsqrt
    sqrt.o(i.__softfp_sqrt) refers to _rserrno.o(.text) for __set_errno
    sqrt.o(i.sqrt) refers (Special) to usenofp.o(x$fpl$usenofp) for __I$use$fp
    sqrt.o(i.sqrt) refers to dsqrt_umaal.o(x$fpl$dsqrt) for _dsqrt
    sqrt.o(i.sqrt) refers to _rserrno.o(.text) for __set_errno
    sqrt_x.o(i.____hardfp_sqrt$lsc) refers (Special) to usenofp.o(x$fpl$usenofp) for __I$use$fp
    sqrt_x.o(i.____hardfp_sqrt$lsc) refers to dleqf.o(x$fpl$dleqf) for __aeabi_cdcmple
    sqrt_x.o(i.____hardfp_sqrt$lsc) refers to _rserrno.o(.text) for __set_errno
    sqrt_x.o(i.____hardfp_sqrt$lsc) refers to dsqrt_umaal.o(x$fpl$dsqrt) for _dsqrt
    sqrt_x.o(i.____softfp_sqrt$lsc) refers (Special) to usenofp.o(x$fpl$usenofp) for __I$use$fp
    sqrt_x.o(i.____softfp_sqrt$lsc) refers to dleqf.o(x$fpl$dleqf) for __aeabi_cdcmple
    sqrt_x.o(i.____softfp_sqrt$lsc) refers to _rserrno.o(.text) for __set_errno
    sqrt_x.o(i.____softfp_sqrt$lsc) refers to dsqrt_umaal.o(x$fpl$dsqrt) for _dsqrt
    sqrt_x.o(i.__sqrt$lsc) refers (Special) to usenofp.o(x$fpl$usenofp) for __I$use$fp
    sqrt_x.o(i.__sqrt$lsc) refers to dleqf.o(x$fpl$dleqf) for __aeabi_cdcmple
    sqrt_x.o(i.__sqrt$lsc) refers to _rserrno.o(.text) for __set_errno
    sqrt_x.o(i.__sqrt$lsc) refers to dsqrt_umaal.o(x$fpl$dsqrt) for _dsqrt
    __rtentry.o(.ARM.Collect$$rtentry$$00000000) refers (Special) to __rtentry2.o(.ARM.Collect$$rtentry$$0000000A) for __rt_entry_li
    __rtentry.o(.ARM.Collect$$rtentry$$00000000) refers (Special) to __rtentry2.o(.ARM.Collect$$rtentry$$0000000D) for __rt_entry_main
    __rtentry.o(.ARM.Collect$$rtentry$$00000000) refers (Special) to __rtentry2.o(.ARM.Collect$$rtentry$$0000000C) for __rt_entry_postli_1
    __rtentry.o(.ARM.Collect$$rtentry$$00000000) refers (Special) to __rtentry2.o(.ARM.Collect$$rtentry$$00000009) for __rt_entry_postsh_1
    __rtentry.o(.ARM.Collect$$rtentry$$00000000) refers (Special) to __rtentry2.o(.ARM.Collect$$rtentry$$00000002) for __rt_entry_presh_1
    __rtentry.o(.ARM.Collect$$rtentry$$00000000) refers (Special) to __rtentry4.o(.ARM.Collect$$rtentry$$00000004) for __rt_entry_sh
    rt_heap_descriptor.o(.text) refers to rt_heap_descriptor.o(.bss) for __rt_heap_descriptor_data
    rt_heap_descriptor_intlibspace.o(.text) refers to libspace.o(.bss) for __libspace_start
    init_alloc.o(.text) refers (Special) to hguard.o(.text) for __heap$guard
    init_alloc.o(.text) refers (Special) to libinit2.o(.ARM.Collect$$libinit$$00000005) for __rt_lib_init_heap_2
    init_alloc.o(.text) refers (Special) to maybetermalloc1.o(.emb_text) for _maybe_terminate_alloc
    init_alloc.o(.text) refers to h1_extend.o(.text) for __Heap_ProvideMemory
    init_alloc.o(.text) refers to defsig_rtmem_outer.o(.text) for __rt_SIGRTMEM
    init_alloc.o(.text) refers to rt_heap_descriptor_intlibspace.o(.text) for __rt_heap_descriptor
    init_alloc.o(.text) refers to h1_init.o(.text) for __Heap_Initialize
    malloc.o(.text) refers (Special) to hguard.o(.text) for __heap$guard
    malloc.o(.text) refers (Special) to init_alloc.o(.text) for _init_alloc
    malloc.o(.text) refers to rt_heap_descriptor_intlibspace.o(.text) for __rt_heap_descriptor
    malloc.o(.text) refers to heapstubs.o(.text) for __Heap_Alloc
    h1_alloc.o(.text) refers (Special) to h1_init.o(.text) for __Heap_Initialize
    h1_alloc.o(.text) refers to rt_heap_descriptor_intlibspace.o(.text) for __rt_heap_descriptor
    h1_alloc.o(.text) refers to init_alloc.o(.text) for __Heap_Full
    h1_alloc_mt.o(.text) refers (Special) to h1_init.o(.text) for __Heap_Initialize
    h1_alloc_mt.o(.text) refers to init_alloc.o(.text) for __Heap_Full
    h1_alloc_mt.o(.text) refers to rt_heap_descriptor_intlibspace.o(.text) for __rt_heap_descriptor
    _rserrno.o(.text) refers to rt_errno_addr_intlibspace.o(.text) for __aeabi_errno_addr
    dcmpi.o(x$fpl$dcmpinf) refers (Special) to usenofp.o(x$fpl$usenofp) for __I$use$fp
    dnaninf.o(x$fpl$dnaninf) refers (Special) to usenofp.o(x$fpl$usenofp) for __I$use$fp
    dretinf.o(x$fpl$dretinf) refers (Special) to usenofp.o(x$fpl$usenofp) for __I$use$fp
    dsqrt_umaal.o(x$fpl$dsqrt) refers (Special) to usenofp.o(x$fpl$usenofp) for __I$use$fp
    dsqrt_umaal.o(x$fpl$dsqrt) refers to dnaninf.o(x$fpl$dnaninf) for __fpl_dnaninf
    fnaninf.o(x$fpl$fnaninf) refers (Special) to usenofp.o(x$fpl$usenofp) for __I$use$fp
    fretinf.o(x$fpl$fretinf) refers (Special) to usenofp.o(x$fpl$usenofp) for __I$use$fp
    istatus.o(x$fpl$ieeestatus) refers (Special) to usenofp.o(x$fpl$usenofp) for __I$use$fp
    scalbn.o(x$fpl$scalbn) refers (Special) to usenofp.o(x$fpl$usenofp) for __I$use$fp
    scalbn.o(x$fpl$scalbn) refers to dcheck1.o(x$fpl$dcheck1) for __fpl_dcheck_NaN1
    cos_i.o(i.__kernel_cos) refers (Special) to usenofp.o(x$fpl$usenofp) for __I$use$fp
    cos_i.o(i.__kernel_cos) refers to dfix.o(x$fpl$dfix) for __aeabi_d2iz
    cos_i.o(i.__kernel_cos) refers to dmul.o(x$fpl$dmul) for __aeabi_dmul
    cos_i.o(i.__kernel_cos) refers to poly.o(i.__kernel_poly) for __kernel_poly
    cos_i.o(i.__kernel_cos) refers to daddsub_clz.o(x$fpl$dsub) for __aeabi_dsub
    cos_i.o(i.__kernel_cos) refers to daddsub_clz.o(x$fpl$drsb) for __aeabi_drsub
    cos_i.o(i.__kernel_cos) refers to cos_i.o(.constdata) for .constdata
    cos_i.o(.constdata) refers (Special) to usenofp.o(x$fpl$usenofp) for __I$use$fp
    dunder.o(i.__mathlib_dbl_divzero) refers to ddiv.o(x$fpl$ddiv) for __aeabi_ddiv
    dunder.o(i.__mathlib_dbl_infnan) refers to daddsub_clz.o(x$fpl$dadd) for __aeabi_dadd
    dunder.o(i.__mathlib_dbl_infnan2) refers to daddsub_clz.o(x$fpl$dadd) for __aeabi_dadd
    dunder.o(i.__mathlib_dbl_invalid) refers to ddiv.o(x$fpl$ddiv) for __aeabi_ddiv
    dunder.o(i.__mathlib_dbl_overflow) refers to dmul.o(x$fpl$dmul) for __aeabi_dmul
    dunder.o(i.__mathlib_dbl_posinfnan) refers to dmul.o(x$fpl$dmul) for __aeabi_dmul
    dunder.o(i.__mathlib_dbl_underflow) refers to dmul.o(x$fpl$dmul) for __aeabi_dmul
    fpclassify.o(i.__ARM_fpclassify) refers (Special) to usenofp.o(x$fpl$usenofp) for __I$use$fp
    fpclassifyf.o(i.__ARM_fpclassifyf) refers (Special) to usenofp.o(x$fpl$usenofp) for __I$use$fp
    poly.o(i.__kernel_poly) refers (Special) to usenofp.o(x$fpl$usenofp) for __I$use$fp
    poly.o(i.__kernel_poly) refers to dmul.o(x$fpl$dmul) for __aeabi_dmul
    poly.o(i.__kernel_poly) refers to daddsub_clz.o(x$fpl$dadd) for __aeabi_dadd
    qnan.o(.constdata) refers (Special) to usenofp.o(x$fpl$usenofp) for __I$use$fp
    rred.o(i.__ieee754_rem_pio2) refers (Special) to usenofp.o(x$fpl$usenofp) for __I$use$fp
    rred.o(i.__ieee754_rem_pio2) refers to daddsub_clz.o(x$fpl$dsub) for __aeabi_dsub
    rred.o(i.__ieee754_rem_pio2) refers to daddsub_clz.o(x$fpl$dadd) for __aeabi_dadd
    rred.o(i.__ieee754_rem_pio2) refers to fabs.o(i.fabs) for fabs
    rred.o(i.__ieee754_rem_pio2) refers to dmul.o(x$fpl$dmul) for __aeabi_dmul
    rred.o(i.__ieee754_rem_pio2) refers to dfix.o(x$fpl$dfix) for __aeabi_d2iz
    rred.o(i.__ieee754_rem_pio2) refers to dflt_clz.o(x$fpl$dflt) for __aeabi_i2d
    rred.o(i.__ieee754_rem_pio2) refers to daddsub_clz.o(x$fpl$drsb) for __aeabi_drsub
    rred.o(i.__ieee754_rem_pio2) refers to basic.o(x$fpl$basic) for __aeabi_dneg
    rred.o(i.__ieee754_rem_pio2) refers to dflt_clz.o(x$fpl$dfltu) for __aeabi_ui2d
    rred.o(i.__ieee754_rem_pio2) refers to rred.o(.constdata) for .constdata
    rred.o(i.__use_accurate_range_reduction) refers (Special) to usenofp.o(x$fpl$usenofp) for __I$use$fp
    rred.o(.constdata) refers (Special) to usenofp.o(x$fpl$usenofp) for __I$use$fp
    rredf.o(i.__mathlib_rredf2) refers (Special) to usenofp.o(x$fpl$usenofp) for __I$use$fp
    rredf.o(i.__mathlib_rredf2) refers to rredf.o(.constdata) for .constdata
    rredf.o(.constdata) refers (Special) to usenofp.o(x$fpl$usenofp) for __I$use$fp
    sin_i.o(i.__kernel_sin) refers (Special) to usenofp.o(x$fpl$usenofp) for __I$use$fp
    sin_i.o(i.__kernel_sin) refers to fpclassify.o(i.__ARM_fpclassify) for __ARM_fpclassify
    sin_i.o(i.__kernel_sin) refers to dunder.o(i.__mathlib_dbl_underflow) for __mathlib_dbl_underflow
    sin_i.o(i.__kernel_sin) refers to dmul.o(x$fpl$dmul) for __aeabi_dmul
    sin_i.o(i.__kernel_sin) refers to poly.o(i.__kernel_poly) for __kernel_poly
    sin_i.o(i.__kernel_sin) refers to daddsub_clz.o(x$fpl$dsub) for __aeabi_dsub
    sin_i.o(i.__kernel_sin) refers to daddsub_clz.o(x$fpl$drsb) for __aeabi_drsub
    sin_i.o(i.__kernel_sin) refers to daddsub_clz.o(x$fpl$dadd) for __aeabi_dadd
    sin_i.o(i.__kernel_sin) refers to sin_i.o(.constdata) for .constdata
    sin_i.o(.constdata) refers (Special) to usenofp.o(x$fpl$usenofp) for __I$use$fp
    sin_i_x.o(i.____kernel_sin$lsc) refers (Special) to usenofp.o(x$fpl$usenofp) for __I$use$fp
    sin_i_x.o(i.____kernel_sin$lsc) refers to dmul.o(x$fpl$dmul) for __aeabi_dmul
    sin_i_x.o(i.____kernel_sin$lsc) refers to poly.o(i.__kernel_poly) for __kernel_poly
    sin_i_x.o(i.____kernel_sin$lsc) refers to daddsub_clz.o(x$fpl$dsub) for __aeabi_dsub
    sin_i_x.o(i.____kernel_sin$lsc) refers to daddsub_clz.o(x$fpl$drsb) for __aeabi_drsub
    sin_i_x.o(i.____kernel_sin$lsc) refers to daddsub_clz.o(x$fpl$dadd) for __aeabi_dadd
    sin_i_x.o(i.____kernel_sin$lsc) refers to sin_i_x.o(.constdata) for .constdata
    sin_i_x.o(.constdata) refers (Special) to usenofp.o(x$fpl$usenofp) for __I$use$fp
    sqrtf.o(i.__hardfp_sqrtf) refers (Special) to usenofp.o(x$fpl$usenofp) for __I$use$fp
    sqrtf.o(i.__hardfp_sqrtf) refers to _rserrno.o(.text) for __set_errno
    sqrtf.o(i.__softfp_sqrtf) refers (Special) to usenofp.o(x$fpl$usenofp) for __I$use$fp
    sqrtf.o(i.__softfp_sqrtf) refers to _rserrno.o(.text) for __set_errno
    sqrtf.o(i.sqrtf) refers (Special) to usenofp.o(x$fpl$usenofp) for __I$use$fp
    sqrtf.o(i.sqrtf) refers to _rserrno.o(.text) for __set_errno
    sqrtf_x.o(i.____hardfp_sqrtf$lsc) refers (Special) to usenofp.o(x$fpl$usenofp) for __I$use$fp
    sqrtf_x.o(i.____hardfp_sqrtf$lsc) refers to _rserrno.o(.text) for __set_errno
    sqrtf_x.o(i.____softfp_sqrtf$lsc) refers (Special) to usenofp.o(x$fpl$usenofp) for __I$use$fp
    sqrtf_x.o(i.____softfp_sqrtf$lsc) refers to _rserrno.o(.text) for __set_errno
    sqrtf_x.o(i.__sqrtf$lsc) refers (Special) to usenofp.o(x$fpl$usenofp) for __I$use$fp
    sqrtf_x.o(i.__sqrtf$lsc) refers to _rserrno.o(.text) for __set_errno
    libspace.o(.text) refers to libspace.o(.bss) for __libspace_start
    __rtentry2.o(.ARM.Collect$$rtentry$$00000008) refers to boardinit2.o(.text) for _platform_post_stackheap_init
    __rtentry2.o(.ARM.Collect$$rtentry$$0000000A) refers to libinit.o(.ARM.Collect$$libinit$$00000000) for __rt_lib_init
    __rtentry2.o(.ARM.Collect$$rtentry$$0000000B) refers to boardinit3.o(.text) for _platform_post_lib_init
    __rtentry2.o(.ARM.Collect$$rtentry$$0000000D) refers to main.o(.text) for main
    __rtentry2.o(.ARM.Collect$$rtentry$$0000000D) refers to exit.o(.text) for exit
    __rtentry2.o(.ARM.exidx) refers to __rtentry2.o(.ARM.Collect$$rtentry$$00000001) for .ARM.Collect$$rtentry$$00000001
    __rtentry2.o(.ARM.exidx) refers to __rtentry2.o(.ARM.Collect$$rtentry$$00000008) for .ARM.Collect$$rtentry$$00000008
    __rtentry2.o(.ARM.exidx) refers to __rtentry2.o(.ARM.Collect$$rtentry$$0000000A) for .ARM.Collect$$rtentry$$0000000A
    __rtentry2.o(.ARM.exidx) refers to __rtentry2.o(.ARM.Collect$$rtentry$$0000000B) for .ARM.Collect$$rtentry$$0000000B
    __rtentry2.o(.ARM.exidx) refers to __rtentry2.o(.ARM.Collect$$rtentry$$0000000D) for .ARM.Collect$$rtentry$$0000000D
    __rtentry4.o(.ARM.Collect$$rtentry$$00000004) refers to sys_stackheap_outer.o(.text) for __user_setup_stackheap
    __rtentry4.o(.ARM.exidx) refers to __rtentry4.o(.ARM.Collect$$rtentry$$00000004) for .ARM.Collect$$rtentry$$00000004
    aeabi_ldiv0_sigfpe.o(.text) refers to rt_div0.o(.text) for __rt_div0
    rt_errno_addr.o(.text) refers to rt_errno_addr.o(.bss) for __aeabi_errno_addr_data
    rt_errno_addr_intlibspace.o(.text) refers to libspace.o(.bss) for __libspace_start
    maybetermalloc2.o(.emb_text) refers (Special) to term_alloc.o(.text) for _terminate_alloc
    h1_extend.o(.text) refers to h1_free.o(.text) for free
    h1_init_mt.o(.text) refers to mutex_dummy.o(.text) for _mutex_initialize
    h1_extend_mt.o(.text) refers to h1_free_mt.o(.text) for _free_internal
    defsig_rtmem_outer.o(.text) refers to defsig_rtmem_inner.o(.text) for __rt_SIGRTMEM_inner
    defsig_rtmem_outer.o(.text) refers to defsig_exit.o(.text) for __sig_exit
    defsig_rtmem_formal.o(.text) refers to rt_raise.o(.text) for __rt_raise
    heapauxa.o(.text) refers to heapauxa.o(.data) for .data
    _get_argv.o(.text) refers (Special) to hrguard.o(.text) for __heap_region$guard
    _get_argv.o(.text) refers to h1_alloc.o(.text) for malloc
    _get_argv.o(.text) refers to defsig_rtmem_outer.o(.text) for __rt_SIGRTMEM
    _get_argv.o(.text) refers to sys_command.o(.text) for _sys_command_string
    libinit2.o(.ARM.Collect$$libinit$$00000001) refers to fpinit.o(x$fpl$fpinit) for _fp_init
    libinit2.o(.ARM.Collect$$libinit$$00000005) refers (Weak) to init_alloc.o(.text) for _init_alloc
    libinit2.o(.ARM.Collect$$libinit$$00000010) refers to libinit2.o(.ARM.Collect$$libinit$$0000000F) for .ARM.Collect$$libinit$$0000000F
    libinit2.o(.ARM.Collect$$libinit$$00000012) refers to libinit2.o(.ARM.Collect$$libinit$$0000000F) for .ARM.Collect$$libinit$$0000000F
    libinit2.o(.ARM.Collect$$libinit$$00000014) refers to libinit2.o(.ARM.Collect$$libinit$$0000000F) for .ARM.Collect$$libinit$$0000000F
    libinit2.o(.ARM.Collect$$libinit$$00000016) refers to libinit2.o(.ARM.Collect$$libinit$$0000000F) for .ARM.Collect$$libinit$$0000000F
    libinit2.o(.ARM.Collect$$libinit$$00000018) refers to libinit2.o(.ARM.Collect$$libinit$$0000000F) for .ARM.Collect$$libinit$$0000000F
    libinit2.o(.ARM.Collect$$libinit$$00000026) refers to argv_veneer.o(.emb_text) for __ARM_argv_veneer
    libinit2.o(.ARM.Collect$$libinit$$00000027) refers to argv_veneer.o(.emb_text) for __ARM_argv_veneer
    dcheck1.o(x$fpl$dcheck1) refers (Special) to usenofp.o(x$fpl$usenofp) for __I$use$fp
    dcheck1.o(x$fpl$dcheck1) refers to retnan.o(x$fpl$retnan) for __fpl_return_NaN
    sys_command.o(.text) refers (Special) to use_no_semi.o(.text) for __I$use$semihosting
    sys_command.o(.text) refers (Special) to indicate_semi.o(.text) for __semihosting_library_function
    sys_stackheap_outer.o(.text) refers to libspace.o(.text) for __user_perproc_libspace
    sys_stackheap_outer.o(.text) refers to startup_stm32f40_41xxx.o(.text) for __user_initial_stackheap
    rt_div0.o(.text) refers to defsig_fpe_outer.o(.text) for __rt_SIGFPE
    rt_raise.o(.text) refers to __raise.o(.text) for __raise
    rt_raise.o(.text) refers to sys_exit.o(.text) for _sys_exit
    term_alloc.o(.text) refers (Special) to libshutdown2.o(.ARM.Collect$$libshutdown$$0000000E) for __rt_lib_shutdown_heap_2
    term_alloc.o(.text) refers to rt_heap_descriptor_intlibspace.o(.text) for __rt_heap_descriptor
    term_alloc.o(.text) refers to h1_final.o(.text) for __Heap_Finalize
    exit.o(.text) refers to rtexit.o(.ARM.Collect$$rtexit$$00000000) for __rt_exit
    defsig_exit.o(.text) refers to sys_exit.o(.text) for _sys_exit
    defsig_rtmem_inner.o(.text) refers to defsig_general.o(.text) for __default_signal_display
    argv_veneer.o(.emb_text) refers to no_argv.o(.text) for __ARM_get_argv
    libinit.o(.ARM.Collect$$libinit$$00000000) refers (Special) to libinit2.o(.ARM.Collect$$libinit$$0000002E) for __rt_lib_init_alloca_1
    libinit.o(.ARM.Collect$$libinit$$00000000) refers (Special) to libinit2.o(.ARM.Collect$$libinit$$0000002C) for __rt_lib_init_argv_1
    libinit.o(.ARM.Collect$$libinit$$00000000) refers (Special) to libinit2.o(.ARM.Collect$$libinit$$0000001B) for __rt_lib_init_atexit_1
    libinit.o(.ARM.Collect$$libinit$$00000000) refers (Special) to libinit2.o(.ARM.Collect$$libinit$$00000021) for __rt_lib_init_clock_1
    libinit.o(.ARM.Collect$$libinit$$00000000) refers (Special) to libinit2.o(.ARM.Collect$$libinit$$00000032) for __rt_lib_init_cpp_1
    libinit.o(.ARM.Collect$$libinit$$00000000) refers (Special) to libinit2.o(.ARM.Collect$$libinit$$00000030) for __rt_lib_init_exceptions_1
    libinit.o(.ARM.Collect$$libinit$$00000000) refers (Special) to libinit2.o(.ARM.Collect$$libinit$$00000001) for __rt_lib_init_fp_1
    libinit.o(.ARM.Collect$$libinit$$00000000) refers (Special) to libinit2.o(.ARM.Collect$$libinit$$0000001F) for __rt_lib_init_fp_trap_1
    libinit.o(.ARM.Collect$$libinit$$00000000) refers (Special) to libinit2.o(.ARM.Collect$$libinit$$00000023) for __rt_lib_init_getenv_1
    libinit.o(.ARM.Collect$$libinit$$00000000) refers (Special) to libinit2.o(.ARM.Collect$$libinit$$0000000A) for __rt_lib_init_heap_1
    libinit.o(.ARM.Collect$$libinit$$00000000) refers (Special) to libinit2.o(.ARM.Collect$$libinit$$00000011) for __rt_lib_init_lc_collate_1
    libinit.o(.ARM.Collect$$libinit$$00000000) refers (Special) to libinit2.o(.ARM.Collect$$libinit$$00000013) for __rt_lib_init_lc_ctype_1
    libinit.o(.ARM.Collect$$libinit$$00000000) refers (Special) to libinit2.o(.ARM.Collect$$libinit$$00000015) for __rt_lib_init_lc_monetary_1
    libinit.o(.ARM.Collect$$libinit$$00000000) refers (Special) to libinit2.o(.ARM.Collect$$libinit$$00000017) for __rt_lib_init_lc_numeric_1
    libinit.o(.ARM.Collect$$libinit$$00000000) refers (Special) to libinit2.o(.ARM.Collect$$libinit$$00000019) for __rt_lib_init_lc_time_1
    libinit.o(.ARM.Collect$$libinit$$00000000) refers (Special) to libinit2.o(.ARM.Collect$$libinit$$00000004) for __rt_lib_init_preinit_1
    libinit.o(.ARM.Collect$$libinit$$00000000) refers (Special) to libinit2.o(.ARM.Collect$$libinit$$0000000E) for __rt_lib_init_rand_1
    libinit.o(.ARM.Collect$$libinit$$00000000) refers (Special) to libinit2.o(.ARM.Collect$$libinit$$00000033) for __rt_lib_init_return
    libinit.o(.ARM.Collect$$libinit$$00000000) refers (Special) to libinit2.o(.ARM.Collect$$libinit$$0000001D) for __rt_lib_init_signal_1
    libinit.o(.ARM.Collect$$libinit$$00000000) refers (Special) to libinit2.o(.ARM.Collect$$libinit$$00000025) for __rt_lib_init_stdio_1
    libinit.o(.ARM.Collect$$libinit$$00000000) refers (Special) to libinit2.o(.ARM.Collect$$libinit$$0000000C) for __rt_lib_init_user_alloc_1
    retnan.o(x$fpl$retnan) refers (Special) to usenofp.o(x$fpl$usenofp) for __I$use$fp
    retnan.o(x$fpl$retnan) refers to trapv.o(x$fpl$trapveneer) for __fpl_cmpreturn
    sys_exit.o(.text) refers (Special) to use_no_semi.o(.text) for __I$use$semihosting
    sys_exit.o(.text) refers (Special) to indicate_semi.o(.text) for __semihosting_library_function
    rtexit.o(.ARM.Collect$$rtexit$$00000000) refers (Special) to rtexit2.o(.ARM.Collect$$rtexit$$00000004) for __rt_exit_exit
    rtexit.o(.ARM.Collect$$rtexit$$00000000) refers (Special) to rtexit2.o(.ARM.Collect$$rtexit$$00000003) for __rt_exit_ls
    rtexit.o(.ARM.Collect$$rtexit$$00000000) refers (Special) to rtexit2.o(.ARM.Collect$$rtexit$$00000002) for __rt_exit_prels_1
    rtexit.o(.ARM.exidx) refers (Special) to rtexit2.o(.ARM.Collect$$rtexit$$00000004) for __rt_exit_exit
    rtexit.o(.ARM.exidx) refers (Special) to rtexit2.o(.ARM.Collect$$rtexit$$00000003) for __rt_exit_ls
    rtexit.o(.ARM.exidx) refers (Special) to rtexit2.o(.ARM.Collect$$rtexit$$00000002) for __rt_exit_prels_1
    rtexit.o(.ARM.exidx) refers to rtexit.o(.ARM.Collect$$rtexit$$00000000) for .ARM.Collect$$rtexit$$00000000
    __raise.o(.text) refers to defsig.o(CL$$defsig) for __default_signal_handler
    defsig_general.o(.text) refers to sys_wrch.o(.text) for _ttywrch
    defsig_fpe_outer.o(.text) refers to defsig_fpe_inner.o(.text) for __rt_SIGFPE_inner
    defsig_fpe_outer.o(.text) refers to defsig_exit.o(.text) for __sig_exit
    defsig_fpe_formal.o(.text) refers to rt_raise.o(.text) for __rt_raise
    _get_argv_nomalloc.o(.text) refers (Special) to hrguard.o(.text) for __heap_region$guard
    _get_argv_nomalloc.o(.text) refers to defsig_rtmem_outer.o(.text) for __rt_SIGRTMEM
    _get_argv_nomalloc.o(.text) refers to sys_command.o(.text) for _sys_command_string
    libshutdown2.o(.ARM.Collect$$libshutdown$$0000000D) refers (Weak) to term_alloc.o(.text) for _terminate_alloc
    trapv.o(x$fpl$trapveneer) refers (Special) to usenofp.o(x$fpl$usenofp) for __I$use$fp
    sys_wrch.o(.text) refers (Special) to use_no_semi.o(.text) for __I$use$semihosting
    sys_wrch.o(.text) refers (Special) to indicate_semi.o(.text) for __semihosting_library_function
    rtexit2.o(.ARM.Collect$$rtexit$$00000003) refers to libshutdown.o(.ARM.Collect$$libshutdown$$00000000) for __rt_lib_shutdown
    rtexit2.o(.ARM.Collect$$rtexit$$00000004) refers to sys_exit.o(.text) for _sys_exit
    rtexit2.o(.ARM.exidx) refers to rtexit2.o(.ARM.Collect$$rtexit$$00000001) for .ARM.Collect$$rtexit$$00000001
    rtexit2.o(.ARM.exidx) refers to rtexit2.o(.ARM.Collect$$rtexit$$00000003) for .ARM.Collect$$rtexit$$00000003
    rtexit2.o(.ARM.exidx) refers to rtexit2.o(.ARM.Collect$$rtexit$$00000004) for .ARM.Collect$$rtexit$$00000004
    defsig_fpe_inner.o(.text) refers to defsig_general.o(.text) for __default_signal_display
    defsig.o(CL$$defsig) refers to defsig_fpe_inner.o(.text) for __rt_SIGFPE_inner
    defsig.o(CL$$defsig) refers to defsig_rtmem_inner.o(.text) for __rt_SIGRTMEM_inner
    defsig_abrt_inner.o(.text) refers to defsig_general.o(.text) for __default_signal_display
    defsig_rtred_inner.o(.text) refers to defsig_general.o(.text) for __default_signal_display
    defsig_stak_inner.o(.text) refers to defsig_general.o(.text) for __default_signal_display
    defsig_pvfn_inner.o(.text) refers to defsig_general.o(.text) for __default_signal_display
    defsig_cppl_inner.o(.text) refers to defsig_general.o(.text) for __default_signal_display
    defsig_segv_inner.o(.text) refers to defsig_general.o(.text) for __default_signal_display
    defsig_other.o(.text) refers to defsig_general.o(.text) for __default_signal_display
    libshutdown.o(.ARM.Collect$$libshutdown$$00000000) refers (Special) to libshutdown2.o(.ARM.Collect$$libshutdown$$00000002) for __rt_lib_shutdown_cpp_1
    libshutdown.o(.ARM.Collect$$libshutdown$$00000000) refers (Special) to libshutdown2.o(.ARM.Collect$$libshutdown$$00000007) for __rt_lib_shutdown_fp_trap_1
    libshutdown.o(.ARM.Collect$$libshutdown$$00000000) refers (Special) to libshutdown2.o(.ARM.Collect$$libshutdown$$0000000F) for __rt_lib_shutdown_heap_1
    libshutdown.o(.ARM.Collect$$libshutdown$$00000000) refers (Special) to libshutdown2.o(.ARM.Collect$$libshutdown$$00000010) for __rt_lib_shutdown_return
    libshutdown.o(.ARM.Collect$$libshutdown$$00000000) refers (Special) to libshutdown2.o(.ARM.Collect$$libshutdown$$0000000A) for __rt_lib_shutdown_signal_1
    libshutdown.o(.ARM.Collect$$libshutdown$$00000000) refers (Special) to libshutdown2.o(.ARM.Collect$$libshutdown$$00000004) for __rt_lib_shutdown_stdio_1
    libshutdown.o(.ARM.Collect$$libshutdown$$00000000) refers (Special) to libshutdown2.o(.ARM.Collect$$libshutdown$$0000000C) for __rt_lib_shutdown_user_alloc_1


==============================================================================

Removing Unused input sections from the image.

    Removing ucos_task.o(.rev16_text), (4 bytes).
    Removing ucos_task.o(.revsh_text), (4 bytes).
    Removing main.o(.rev16_text), (4 bytes).
    Removing main.o(.revsh_text), (4 bytes).
    Removing error.o(.rev16_text), (4 bytes).
    Removing error.o(.revsh_text), (4 bytes).
    Removing error.o(.text), (1036 bytes).
    Removing error.o(.bss), (72 bytes).
    Removing stm32f4xx_it.o(.rev16_text), (4 bytes).
    Removing stm32f4xx_it.o(.revsh_text), (4 bytes).
    Removing system_stm32f4xx.o(.rev16_text), (4 bytes).
    Removing system_stm32f4xx.o(.revsh_text), (4 bytes).
    Removing delay.o(.rev16_text), (4 bytes).
    Removing delay.o(.revsh_text), (4 bytes).
    Removing sys.o(.rev16_text), (4 bytes).
    Removing sys.o(.revsh_text), (4 bytes).
    Removing sys.o(.emb_text), (16 bytes).
    Removing misc.o(.rev16_text), (4 bytes).
    Removing misc.o(.revsh_text), (4 bytes).
    Removing stm32f4xx_gpio.o(.rev16_text), (4 bytes).
    Removing stm32f4xx_gpio.o(.revsh_text), (4 bytes).
    Removing stm32f4xx_fsmc.o(.rev16_text), (4 bytes).
    Removing stm32f4xx_fsmc.o(.revsh_text), (4 bytes).
    Removing stm32f4xx_fsmc.o(.text), (1480 bytes).
    Removing stm32f4xx_fsmc.o(.constdata), (28 bytes).
    Removing stm32f4xx_rcc.o(.rev16_text), (4 bytes).
    Removing stm32f4xx_rcc.o(.revsh_text), (4 bytes).
    Removing stm32f4xx_syscfg.o(.rev16_text), (4 bytes).
    Removing stm32f4xx_syscfg.o(.revsh_text), (4 bytes).
    Removing stm32f4xx_usart.o(.rev16_text), (4 bytes).
    Removing stm32f4xx_usart.o(.revsh_text), (4 bytes).
    Removing stm32f4xx_tim.o(.rev16_text), (4 bytes).
    Removing stm32f4xx_tim.o(.revsh_text), (4 bytes).
    Removing stm32f4xx_flash.o(.rev16_text), (4 bytes).
    Removing stm32f4xx_flash.o(.revsh_text), (4 bytes).
    Removing stm32f4xx_exti.o(.rev16_text), (4 bytes).
    Removing stm32f4xx_exti.o(.revsh_text), (4 bytes).
    Removing stm32f4xx_pwr.o(.rev16_text), (4 bytes).
    Removing stm32f4xx_pwr.o(.revsh_text), (4 bytes).
    Removing stm32f4xx_pwr.o(.text), (364 bytes).
    Removing stm32f4xx_spi.o(.rev16_text), (4 bytes).
    Removing stm32f4xx_spi.o(.revsh_text), (4 bytes).
    Removing stm32f4xx_dma.o(.rev16_text), (4 bytes).
    Removing stm32f4xx_dma.o(.revsh_text), (4 bytes).
    Removing stm32f4xx_adc.o(.rev16_text), (4 bytes).
    Removing stm32f4xx_adc.o(.revsh_text), (4 bytes).
    Removing stm32f4xx_adc.o(.text), (1124 bytes).
    Removing stm32f4xx_iwdg.o(.rev16_text), (4 bytes).
    Removing stm32f4xx_iwdg.o(.revsh_text), (4 bytes).
    Removing stm32f4xx_can.o(.rev16_text), (4 bytes).
    Removing stm32f4xx_can.o(.revsh_text), (4 bytes).
    Removing stm32f4xx_can.o(.text), (2544 bytes).
    Removing os_core.o(.rev16_text), (4 bytes).
    Removing os_core.o(.revsh_text), (4 bytes).
    Removing os_flag.o(.rev16_text), (4 bytes).
    Removing os_flag.o(.revsh_text), (4 bytes).
    Removing os_mbox.o(.rev16_text), (4 bytes).
    Removing os_mbox.o(.revsh_text), (4 bytes).
    Removing os_mem.o(.rev16_text), (4 bytes).
    Removing os_mem.o(.revsh_text), (4 bytes).
    Removing os_mutex.o(.rev16_text), (4 bytes).
    Removing os_mutex.o(.revsh_text), (4 bytes).
    Removing os_mutex.o(.text), (1536 bytes).
    Removing os_q.o(.rev16_text), (4 bytes).
    Removing os_q.o(.revsh_text), (4 bytes).
    Removing os_sem.o(.rev16_text), (4 bytes).
    Removing os_sem.o(.revsh_text), (4 bytes).
    Removing os_task.o(.rev16_text), (4 bytes).
    Removing os_task.o(.revsh_text), (4 bytes).
    Removing os_time.o(.rev16_text), (4 bytes).
    Removing os_time.o(.revsh_text), (4 bytes).
    Removing os_tmr.o(.rev16_text), (4 bytes).
    Removing os_tmr.o(.revsh_text), (4 bytes).
    Removing os_cpu_c.o(.rev16_text), (4 bytes).
    Removing os_cpu_c.o(.revsh_text), (4 bytes).
    Removing iic_fc.o(.rev16_text), (4 bytes).
    Removing iic_fc.o(.revsh_text), (4 bytes).
    Removing iic_fc.o(.text), (1060 bytes).
    Removing iic1.o(.rev16_text), (4 bytes).
    Removing iic1.o(.revsh_text), (4 bytes).
    Removing iic_imu1.o(.rev16_text), (4 bytes).
    Removing iic_imu1.o(.revsh_text), (4 bytes).
    Removing iic_imu1.o(.text), (872 bytes).
    Removing iic_imu1.o(.data), (1 bytes).
    Removing iic_soft.o(.rev16_text), (4 bytes).
    Removing iic_soft.o(.revsh_text), (4 bytes).
    Removing led_fc.o(.rev16_text), (4 bytes).
    Removing led_fc.o(.revsh_text), (4 bytes).
    Removing flash.o(.rev16_text), (4 bytes).
    Removing flash.o(.revsh_text), (4 bytes).
    Removing flash_w25.o(.rev16_text), (4 bytes).
    Removing flash_w25.o(.revsh_text), (4 bytes).
    Removing time.o(.rev16_text), (4 bytes).
    Removing time.o(.revsh_text), (4 bytes).
    Removing time.o(.data), (20 bytes).
    Removing dma.o(.rev16_text), (4 bytes).
    Removing dma.o(.revsh_text), (4 bytes).
    Removing watch_dog.o(.rev16_text), (4 bytes).
    Removing watch_dog.o(.revsh_text), (4 bytes).
    Removing gps.o(.rev16_text), (4 bytes).
    Removing gps.o(.revsh_text), (4 bytes).
    Removing gps.o(.bss), (50 bytes).
    Removing usart_fc.o(.rev16_text), (4 bytes).
    Removing usart_fc.o(.revsh_text), (4 bytes).
    Removing m100.o(.rev16_text), (4 bytes).
    Removing m100.o(.revsh_text), (4 bytes).
    Removing m100.o(.text), (1408 bytes).
    Removing m100.o(.data), (16 bytes).
    Removing lis3mdl.o(.rev16_text), (4 bytes).
    Removing lis3mdl.o(.revsh_text), (4 bytes).
    Removing mpu6050.o(.rev16_text), (4 bytes).
    Removing mpu6050.o(.revsh_text), (4 bytes).
    Removing ms5611_2.o(.rev16_text), (4 bytes).
    Removing ms5611_2.o(.revsh_text), (4 bytes).
    Removing ms5611_2.o(.text), (1860 bytes).
    Removing ms5611_2.o(.bss), (12 bytes).
    Removing fliter.o(.rev16_text), (4 bytes).
    Removing fliter.o(.revsh_text), (4 bytes).
    Removing ultrasonic.o(.rev16_text), (4 bytes).
    Removing ultrasonic.o(.revsh_text), (4 bytes).
    Removing hml_sample.o(.rev16_text), (4 bytes).
    Removing hml_sample.o(.revsh_text), (4 bytes).
    Removing fastmath.o(.text), (5112 bytes).
    Removing fastmath.o(.constdata), (2176 bytes).
    Removing my_math.o(.rev16_text), (4 bytes).
    Removing my_math.o(.revsh_text), (4 bytes).
    Removing nav_ukf.o(.rev16_text), (4 bytes).
    Removing nav_ukf.o(.revsh_text), (4 bytes).
    Removing imu.o(.rev16_text), (4 bytes).
    Removing imu.o(.revsh_text), (4 bytes).
    Removing imu.o(.text), (4928 bytes).
    Removing imu_m.o(.rev16_text), (4 bytes).
    Removing imu_m.o(.revsh_text), (4 bytes).
    Removing ukf_task.o(.rev16_text), (4 bytes).
    Removing ukf_task.o(.revsh_text), (4 bytes).
    Removing alt_kf.o(.rev16_text), (4 bytes).
    Removing alt_kf.o(.revsh_text), (4 bytes).
    Removing arm_std_f32.o(.rev16_text), (4 bytes).
    Removing arm_std_f32.o(.revsh_text), (4 bytes).
    Removing cycle_cal_oldx.o(.emb_text), (8 bytes).
    Removing flow.o(.emb_text), (8 bytes).

141 unused section(s) (total 26203 bytes) removed from the image.

==============================================================================

Image Symbol Table

    Local Symbols

    Symbol Name                              Value     Ov Type        Size  Object(Section)

    ../clib/angel/boardlib.s                 0x00000000   Number         0  boardshut.o ABSOLUTE
    ../clib/angel/boardlib.s                 0x00000000   Number         0  boardinit2.o ABSOLUTE
    ../clib/angel/boardlib.s                 0x00000000   Number         0  boardinit1.o ABSOLUTE
    ../clib/angel/boardlib.s                 0x00000000   Number         0  boardinit3.o ABSOLUTE
    ../clib/angel/dczerorl2.s                0x00000000   Number         0  __dczerorl2.o ABSOLUTE
    ../clib/angel/handlers.s                 0x00000000   Number         0  __scatter_zi.o ABSOLUTE
    ../clib/angel/kernel.s                   0x00000000   Number         0  __rtentry2.o ABSOLUTE
    ../clib/angel/kernel.s                   0x00000000   Number         0  __rtentry4.o ABSOLUTE
    ../clib/angel/kernel.s                   0x00000000   Number         0  rtexit2.o ABSOLUTE
    ../clib/angel/kernel.s                   0x00000000   Number         0  __rtentry.o ABSOLUTE
    ../clib/angel/kernel.s                   0x00000000   Number         0  rtexit.o ABSOLUTE
    ../clib/angel/rt.s                       0x00000000   Number         0  rt_raise.o ABSOLUTE
    ../clib/angel/rt.s                       0x00000000   Number         0  rt_div0.o ABSOLUTE
    ../clib/angel/rt.s                       0x00000000   Number         0  rt_errno_addr_intlibspace.o ABSOLUTE
    ../clib/angel/rt.s                       0x00000000   Number         0  rt_errno_addr.o ABSOLUTE
    ../clib/angel/rt.s                       0x00000000   Number         0  aeabi_ldiv0.o ABSOLUTE
    ../clib/angel/rt.s                       0x00000000   Number         0  aeabi_ldiv0_sigfpe.o ABSOLUTE
    ../clib/angel/rt.s                       0x00000000   Number         0  rt_heap_descriptor.o ABSOLUTE
    ../clib/angel/rt.s                       0x00000000   Number         0  rt_heap_descriptor_intlibspace.o ABSOLUTE
    ../clib/angel/scatter.s                  0x00000000   Number         0  __scatter.o ABSOLUTE
    ../clib/angel/startup.s                  0x00000000   Number         0  __main.o ABSOLUTE
    ../clib/angel/sys.s                      0x00000000   Number         0  sys_stackheap_outer.o ABSOLUTE
    ../clib/angel/sys.s                      0x00000000   Number         0  use_no_semi.o ABSOLUTE
    ../clib/angel/sys.s                      0x00000000   Number         0  libspace.o ABSOLUTE
    ../clib/angel/sys.s                      0x00000000   Number         0  indicate_semi.o ABSOLUTE
    ../clib/angel/sys.s                      0x00000000   Number         0  mutex_dummy.o ABSOLUTE
    ../clib/angel/sysapp.c                   0x00000000   Number         0  sys_wrch.o ABSOLUTE
    ../clib/angel/sysapp.c                   0x00000000   Number         0  sys_command.o ABSOLUTE
    ../clib/angel/sysapp.c                   0x00000000   Number         0  sys_exit.o ABSOLUTE
    ../clib/armsys.c                         0x00000000   Number         0  no_argv.o ABSOLUTE
    ../clib/armsys.c                         0x00000000   Number         0  _get_argv_nomalloc.o ABSOLUTE
    ../clib/armsys.c                         0x00000000   Number         0  argv_veneer.o ABSOLUTE
    ../clib/armsys.c                         0x00000000   Number         0  _get_argv.o ABSOLUTE
    ../clib/armsys.c                         0x00000000   Number         0  argv_veneer.o ABSOLUTE
    ../clib/fenv.c                           0x00000000   Number         0  _rserrno.o ABSOLUTE
    ../clib/heap1.c                          0x00000000   Number         0  h1_extend.o ABSOLUTE
    ../clib/heap1.c                          0x00000000   Number         0  h1_final.o ABSOLUTE
    ../clib/heap1.c                          0x00000000   Number         0  h1_final_mt.o ABSOLUTE
    ../clib/heap1.c                          0x00000000   Number         0  h1_alloc_mt.o ABSOLUTE
    ../clib/heap1.c                          0x00000000   Number         0  h1_extend_mt.o ABSOLUTE
    ../clib/heap1.c                          0x00000000   Number         0  h1_init_mt.o ABSOLUTE
    ../clib/heap1.c                          0x00000000   Number         0  h1_init.o ABSOLUTE
    ../clib/heap1.c                          0x00000000   Number         0  h1_free_mt.o ABSOLUTE
    ../clib/heap1.c                          0x00000000   Number         0  h1_free.o ABSOLUTE
    ../clib/heap1.c                          0x00000000   Number         0  h1_alloc.o ABSOLUTE
    ../clib/heap2.c                          0x00000000   Number         0  fdtree.o ABSOLUTE
    ../clib/heap2.c                          0x00000000   Number         0  heap2mt.o ABSOLUTE
    ../clib/heap2.c                          0x00000000   Number         0  heap2.o ABSOLUTE
    ../clib/heapalloc.c                      0x00000000   Number         0  free.o ABSOLUTE
    ../clib/heapalloc.c                      0x00000000   Number         0  init_alloc.o ABSOLUTE
    ../clib/heapalloc.c                      0x00000000   Number         0  maybetermalloc2.o ABSOLUTE
    ../clib/heapalloc.c                      0x00000000   Number         0  maybetermalloc1.o ABSOLUTE
    ../clib/heapalloc.c                      0x00000000   Number         0  term_alloc.o ABSOLUTE
    ../clib/heapalloc.c                      0x00000000   Number         0  hguard.o ABSOLUTE
    ../clib/heapalloc.c                      0x00000000   Number         0  hrguard.o ABSOLUTE
    ../clib/heapalloc.c                      0x00000000   Number         0  heapstubs.o ABSOLUTE
    ../clib/heapalloc.c                      0x00000000   Number         0  malloc.o ABSOLUTE
    ../clib/heapalloc.c                      0x00000000   Number         0  maybetermalloc2.o ABSOLUTE
    ../clib/heapalloc.c                      0x00000000   Number         0  maybetermalloc1.o ABSOLUTE
    ../clib/heapaux.c                        0x00000000   Number         0  heapauxi.o ABSOLUTE
    ../clib/heapaux.c                        0x00000000   Number         0  heapauxa.o ABSOLUTE
    ../clib/libinit.s                        0x00000000   Number         0  libshutdown.o ABSOLUTE
    ../clib/libinit.s                        0x00000000   Number         0  libshutdown2.o ABSOLUTE
    ../clib/libinit.s                        0x00000000   Number         0  libinit.o ABSOLUTE
    ../clib/libinit.s                        0x00000000   Number         0  libinit2.o ABSOLUTE
    ../clib/longlong.s                       0x00000000   Number         0  lludivv7m.o ABSOLUTE
    ../clib/longlong.s                       0x00000000   Number         0  llsdiv.o ABSOLUTE
    ../clib/memcpset.s                       0x00000000   Number         0  rt_memcpy_w.o ABSOLUTE
    ../clib/memcpset.s                       0x00000000   Number         0  rt_memclr_w.o ABSOLUTE
    ../clib/signal.c                         0x00000000   Number         0  defsig_abrt_inner.o ABSOLUTE
    ../clib/signal.c                         0x00000000   Number         0  defsig_rtmem_inner.o ABSOLUTE
    ../clib/signal.c                         0x00000000   Number         0  defsig_exit.o ABSOLUTE
    ../clib/signal.c                         0x00000000   Number         0  defsig_rtred_inner.o ABSOLUTE
    ../clib/signal.c                         0x00000000   Number         0  defsig_stak_inner.o ABSOLUTE
    ../clib/signal.c                         0x00000000   Number         0  defsig_pvfn_inner.o ABSOLUTE
    ../clib/signal.c                         0x00000000   Number         0  defsig_cppl_inner.o ABSOLUTE
    ../clib/signal.c                         0x00000000   Number         0  defsig_rtmem_formal.o ABSOLUTE
    ../clib/signal.c                         0x00000000   Number         0  defsig_rtmem_outer.o ABSOLUTE
    ../clib/signal.c                         0x00000000   Number         0  defsig_fpe_formal.o ABSOLUTE
    ../clib/signal.c                         0x00000000   Number         0  defsig_segv_inner.o ABSOLUTE
    ../clib/signal.c                         0x00000000   Number         0  defsig_other.o ABSOLUTE
    ../clib/signal.c                         0x00000000   Number         0  defsig_fpe_inner.o ABSOLUTE
    ../clib/signal.c                         0x00000000   Number         0  defsig_general.o ABSOLUTE
    ../clib/signal.c                         0x00000000   Number         0  __raise.o ABSOLUTE
    ../clib/signal.c                         0x00000000   Number         0  defsig_fpe_outer.o ABSOLUTE
    ../clib/signal.s                         0x00000000   Number         0  defsig.o ABSOLUTE
    ../clib/stdlib.c                         0x00000000   Number         0  exit.o ABSOLUTE
    ../clib/string.c                         0x00000000   Number         0  strstr.o ABSOLUTE
    ../fplib/basic.s                         0x00000000   Number         0  basic.o ABSOLUTE
    ../fplib/d2f.s                           0x00000000   Number         0  d2f.o ABSOLUTE
    ../fplib/daddsub.s                       0x00000000   Number         0  daddsub_clz.o ABSOLUTE
    ../fplib/dcheck1.s                       0x00000000   Number         0  dcheck1.o ABSOLUTE
    ../fplib/dcmpi.s                         0x00000000   Number         0  dcmpi.o ABSOLUTE
    ../fplib/ddiv.s                          0x00000000   Number         0  ddiv.o ABSOLUTE
    ../fplib/deqf.s                          0x00000000   Number         0  deqf.o ABSOLUTE
    ../fplib/dfix.s                          0x00000000   Number         0  dfix.o ABSOLUTE
    ../fplib/dflt.s                          0x00000000   Number         0  dflt_clz.o ABSOLUTE
    ../fplib/dleqf.s                         0x00000000   Number         0  dleqf.o ABSOLUTE
    ../fplib/dmul.s                          0x00000000   Number         0  dmul.o ABSOLUTE
    ../fplib/dnaninf.s                       0x00000000   Number         0  dnaninf.o ABSOLUTE
    ../fplib/dretinf.s                       0x00000000   Number         0  dretinf.o ABSOLUTE
    ../fplib/drleqf.s                        0x00000000   Number         0  drleqf.o ABSOLUTE
    ../fplib/dsqrt.s                         0x00000000   Number         0  dsqrt_umaal.o ABSOLUTE
    ../fplib/f2d.s                           0x00000000   Number         0  f2d.o ABSOLUTE
    ../fplib/ffltll.s                        0x00000000   Number         0  ffltll_clz.o ABSOLUTE
    ../fplib/fnaninf.s                       0x00000000   Number         0  fnaninf.o ABSOLUTE
    ../fplib/fpinit.s                        0x00000000   Number         0  fpinit.o ABSOLUTE
    ../fplib/fretinf.s                       0x00000000   Number         0  fretinf.o ABSOLUTE
    ../fplib/istatus.s                       0x00000000   Number         0  istatus.o ABSOLUTE
    ../fplib/retnan.s                        0x00000000   Number         0  retnan.o ABSOLUTE
    ../fplib/scalbn.s                        0x00000000   Number         0  scalbn.o ABSOLUTE
    ../fplib/trapv.s                         0x00000000   Number         0  trapv.o ABSOLUTE
    ../fplib/usenofp.s                       0x00000000   Number         0  usenofp.o ABSOLUTE
    ../mathlib/acos.c                        0x00000000   Number         0  acos.o ABSOLUTE
    ../mathlib/acos.c                        0x00000000   Number         0  acos_x.o ABSOLUTE
    ../mathlib/asin.c                        0x00000000   Number         0  asin_x.o ABSOLUTE
    ../mathlib/asin.c                        0x00000000   Number         0  asin.o ABSOLUTE
    ../mathlib/asinf.c                       0x00000000   Number         0  asinf_x.o ABSOLUTE
    ../mathlib/asinf.c                       0x00000000   Number         0  asinf.o ABSOLUTE
    ../mathlib/atan2f.c                      0x00000000   Number         0  atan2f_x.o ABSOLUTE
    ../mathlib/atan2f.c                      0x00000000   Number         0  atan2f.o ABSOLUTE
    ../mathlib/atanf.c                       0x00000000   Number         0  atanf_x.o ABSOLUTE
    ../mathlib/atanf.c                       0x00000000   Number         0  atanf.o ABSOLUTE
    ../mathlib/cos.c                         0x00000000   Number         0  cos.o ABSOLUTE
    ../mathlib/cos.c                         0x00000000   Number         0  cos_x.o ABSOLUTE
    ../mathlib/cos_i.c                       0x00000000   Number         0  cos_i.o ABSOLUTE
    ../mathlib/cosf.c                        0x00000000   Number         0  cosf_x.o ABSOLUTE
    ../mathlib/cosf.c                        0x00000000   Number         0  cosf.o ABSOLUTE
    ../mathlib/dunder.c                      0x00000000   Number         0  dunder.o ABSOLUTE
    ../mathlib/fabs.c                        0x00000000   Number         0  fabs.o ABSOLUTE
    ../mathlib/floor.c                       0x00000000   Number         0  floor.o ABSOLUTE
    ../mathlib/fpclassify.c                  0x00000000   Number         0  fpclassify.o ABSOLUTE
    ../mathlib/fpclassifyf.c                 0x00000000   Number         0  fpclassifyf.o ABSOLUTE
    ../mathlib/funder.c                      0x00000000   Number         0  funder.o ABSOLUTE
    ../mathlib/poly.c                        0x00000000   Number         0  poly.o ABSOLUTE
    ../mathlib/pow.c                         0x00000000   Number         0  pow_x.o ABSOLUTE
    ../mathlib/pow.c                         0x00000000   Number         0  pow.o ABSOLUTE
    ../mathlib/powf.c                        0x00000000   Number         0  powf.o ABSOLUTE
    ../mathlib/powf.c                        0x00000000   Number         0  powf_x.o ABSOLUTE
    ../mathlib/qnan.c                        0x00000000   Number         0  qnan.o ABSOLUTE
    ../mathlib/rred.c                        0x00000000   Number         0  rred.o ABSOLUTE
    ../mathlib/rredf.c                       0x00000000   Number         0  rredf.o ABSOLUTE
    ../mathlib/sin.c                         0x00000000   Number         0  sin_x.o ABSOLUTE
    ../mathlib/sin.c                         0x00000000   Number         0  sin.o ABSOLUTE
    ../mathlib/sin_i.c                       0x00000000   Number         0  sin_i_x.o ABSOLUTE
    ../mathlib/sin_i.c                       0x00000000   Number         0  sin_i.o ABSOLUTE
    ../mathlib/sinf.c                        0x00000000   Number         0  sinf_x.o ABSOLUTE
    ../mathlib/sinf.c                        0x00000000   Number         0  sinf.o ABSOLUTE
    ../mathlib/sqrt.c                        0x00000000   Number         0  sqrt_x.o ABSOLUTE
    ../mathlib/sqrt.c                        0x00000000   Number         0  sqrt.o ABSOLUTE
    ../mathlib/sqrtf.c                       0x00000000   Number         0  sqrtf.o ABSOLUTE
    ../mathlib/sqrtf.c                       0x00000000   Number         0  sqrtf_x.o ABSOLUTE
    ..\CORE\startup_stm32f40_41xxx.s         0x00000000   Number         0  startup_stm32f40_41xxx.o ABSOLUTE
    ..\FWLIB\src\misc.c                      0x00000000   Number         0  misc.o ABSOLUTE
    ..\FWLIB\src\stm32f4xx_adc.c             0x00000000   Number         0  stm32f4xx_adc.o ABSOLUTE
    ..\FWLIB\src\stm32f4xx_can.c             0x00000000   Number         0  stm32f4xx_can.o ABSOLUTE
    ..\FWLIB\src\stm32f4xx_dma.c             0x00000000   Number         0  stm32f4xx_dma.o ABSOLUTE
    ..\FWLIB\src\stm32f4xx_exti.c            0x00000000   Number         0  stm32f4xx_exti.o ABSOLUTE
    ..\FWLIB\src\stm32f4xx_flash.c           0x00000000   Number         0  stm32f4xx_flash.o ABSOLUTE
    ..\FWLIB\src\stm32f4xx_fsmc.c            0x00000000   Number         0  stm32f4xx_fsmc.o ABSOLUTE
    ..\FWLIB\src\stm32f4xx_gpio.c            0x00000000   Number         0  stm32f4xx_gpio.o ABSOLUTE
    ..\FWLIB\src\stm32f4xx_iwdg.c            0x00000000   Number         0  stm32f4xx_iwdg.o ABSOLUTE
    ..\FWLIB\src\stm32f4xx_pwr.c             0x00000000   Number         0  stm32f4xx_pwr.o ABSOLUTE
    ..\FWLIB\src\stm32f4xx_rcc.c             0x00000000   Number         0  stm32f4xx_rcc.o ABSOLUTE
    ..\FWLIB\src\stm32f4xx_spi.c             0x00000000   Number         0  stm32f4xx_spi.o ABSOLUTE
    ..\FWLIB\src\stm32f4xx_syscfg.c          0x00000000   Number         0  stm32f4xx_syscfg.o ABSOLUTE
    ..\FWLIB\src\stm32f4xx_tim.c             0x00000000   Number         0  stm32f4xx_tim.o ABSOLUTE
    ..\FWLIB\src\stm32f4xx_usart.c           0x00000000   Number         0  stm32f4xx_usart.o ABSOLUTE
    ..\HARDWARE\GPS\gps.c                    0x00000000   Number         0  gps.o ABSOLUTE
    ..\HARDWARE\GPS\m100.c                   0x00000000   Number         0  m100.o ABSOLUTE
    ..\HARDWARE\IIC\FastMath.c               0x00000000   Number         0  fastmath.o ABSOLUTE
    ..\HARDWARE\IIC\LIS3MDL.c                0x00000000   Number         0  lis3mdl.o ABSOLUTE
    ..\HARDWARE\IIC\alt_kf.c                 0x00000000   Number         0  alt_kf.o ABSOLUTE
    ..\HARDWARE\IIC\dma.c                    0x00000000   Number         0  dma.o ABSOLUTE
    ..\HARDWARE\IIC\error.c                  0x00000000   Number         0  error.o ABSOLUTE
    ..\HARDWARE\IIC\flash.c                  0x00000000   Number         0  flash.o ABSOLUTE
    ..\HARDWARE\IIC\fliter.c                 0x00000000   Number         0  fliter.o ABSOLUTE
    ..\HARDWARE\IIC\hml_sample.c             0x00000000   Number         0  hml_sample.o ABSOLUTE
    ..\HARDWARE\IIC\iic1.c                   0x00000000   Number         0  iic1.o ABSOLUTE
    ..\HARDWARE\IIC\iic_fc.c                 0x00000000   Number         0  iic_fc.o ABSOLUTE
    ..\HARDWARE\IIC\iic_imu1.c               0x00000000   Number         0  iic_imu1.o ABSOLUTE
    ..\HARDWARE\IIC\iic_soft.c               0x00000000   Number         0  iic_soft.o ABSOLUTE
    ..\HARDWARE\IIC\imu.c                    0x00000000   Number         0  imu.o ABSOLUTE
    ..\HARDWARE\IIC\imu_m.c                  0x00000000   Number         0  imu_m.o ABSOLUTE
    ..\HARDWARE\IIC\led_fc.c                 0x00000000   Number         0  led_fc.o ABSOLUTE
    ..\HARDWARE\IIC\mpu6050.c                0x00000000   Number         0  mpu6050.o ABSOLUTE
    ..\HARDWARE\IIC\ms5611_2.c               0x00000000   Number         0  ms5611_2.o ABSOLUTE
    ..\HARDWARE\IIC\my_math.c                0x00000000   Number         0  my_math.o ABSOLUTE
    ..\HARDWARE\IIC\time.c                   0x00000000   Number         0  time.o ABSOLUTE
    ..\HARDWARE\IIC\ucos_task.c              0x00000000   Number         0  ucos_task.o ABSOLUTE
    ..\HARDWARE\IIC\ultrasonic.c             0x00000000   Number         0  ultrasonic.o ABSOLUTE
    ..\HARDWARE\IIC\usart_fc.c               0x00000000   Number         0  usart_fc.o ABSOLUTE
    ..\HARDWARE\IIC\watch_dog.c              0x00000000   Number         0  watch_dog.o ABSOLUTE
    ..\HARDWARE\UKF_NAV\KF_OLDX_NAV.c        0x00000000   Number         0  kf_oldx_nav.o ABSOLUTE
    ..\HARDWARE\UKF_OLDX\nav_ukf.c           0x00000000   Number         0  nav_ukf.o ABSOLUTE
    ..\HARDWARE\UKF_OLDX\rtGetInf.c          0x00000000   Number         0  rtgetinf.o ABSOLUTE
    ..\HARDWARE\UKF_OLDX\rtGetNaN.c          0x00000000   Number         0  rtgetnan.o ABSOLUTE
    ..\HARDWARE\UKF_OLDX\rt_nonfinite.c      0x00000000   Number         0  rt_nonfinite.o ABSOLUTE
    ..\HARDWARE\UKF_OLDX\ukf_task.c          0x00000000   Number         0  ukf_task.o ABSOLUTE
    ..\HARDWARE\flash\flash_w25.c            0x00000000   Number         0  flash_w25.o ABSOLUTE
    ..\SYSTEM\delay\delay.c                  0x00000000   Number         0  delay.o ABSOLUTE
    ..\SYSTEM\sys\sys.c                      0x00000000   Number         0  sys.o ABSOLUTE
    ..\StatisticsFunctions\arm_std_f32.c     0x00000000   Number         0  arm_std_f32.o ABSOLUTE
    ..\UCOSII\CORE\os_core.c                 0x00000000   Number         0  os_core.o ABSOLUTE
    ..\UCOSII\CORE\os_flag.c                 0x00000000   Number         0  os_flag.o ABSOLUTE
    ..\UCOSII\CORE\os_mbox.c                 0x00000000   Number         0  os_mbox.o ABSOLUTE
    ..\UCOSII\CORE\os_mem.c                  0x00000000   Number         0  os_mem.o ABSOLUTE
    ..\UCOSII\CORE\os_mutex.c                0x00000000   Number         0  os_mutex.o ABSOLUTE
    ..\UCOSII\CORE\os_q.c                    0x00000000   Number         0  os_q.o ABSOLUTE
    ..\UCOSII\CORE\os_sem.c                  0x00000000   Number         0  os_sem.o ABSOLUTE
    ..\UCOSII\CORE\os_task.c                 0x00000000   Number         0  os_task.o ABSOLUTE
    ..\UCOSII\CORE\os_time.c                 0x00000000   Number         0  os_time.o ABSOLUTE
    ..\UCOSII\CORE\os_tmr.c                  0x00000000   Number         0  os_tmr.o ABSOLUTE
    ..\UCOSII\PORT\os_cpu_a.asm              0x00000000   Number         0  os_cpu_a.o ABSOLUTE
    ..\UCOSII\PORT\os_cpu_c.c                0x00000000   Number         0  os_cpu_c.o ABSOLUTE
    ..\\FWLIB\\src\\misc.c                   0x00000000   Number         0  misc.o ABSOLUTE
    ..\\FWLIB\\src\\stm32f4xx_adc.c          0x00000000   Number         0  stm32f4xx_adc.o ABSOLUTE
    ..\\FWLIB\\src\\stm32f4xx_can.c          0x00000000   Number         0  stm32f4xx_can.o ABSOLUTE
    ..\\FWLIB\\src\\stm32f4xx_dma.c          0x00000000   Number         0  stm32f4xx_dma.o ABSOLUTE
    ..\\FWLIB\\src\\stm32f4xx_exti.c         0x00000000   Number         0  stm32f4xx_exti.o ABSOLUTE
    ..\\FWLIB\\src\\stm32f4xx_flash.c        0x00000000   Number         0  stm32f4xx_flash.o ABSOLUTE
    ..\\FWLIB\\src\\stm32f4xx_fsmc.c         0x00000000   Number         0  stm32f4xx_fsmc.o ABSOLUTE
    ..\\FWLIB\\src\\stm32f4xx_gpio.c         0x00000000   Number         0  stm32f4xx_gpio.o ABSOLUTE
    ..\\FWLIB\\src\\stm32f4xx_iwdg.c         0x00000000   Number         0  stm32f4xx_iwdg.o ABSOLUTE
    ..\\FWLIB\\src\\stm32f4xx_pwr.c          0x00000000   Number         0  stm32f4xx_pwr.o ABSOLUTE
    ..\\FWLIB\\src\\stm32f4xx_rcc.c          0x00000000   Number         0  stm32f4xx_rcc.o ABSOLUTE
    ..\\FWLIB\\src\\stm32f4xx_spi.c          0x00000000   Number         0  stm32f4xx_spi.o ABSOLUTE
    ..\\FWLIB\\src\\stm32f4xx_syscfg.c       0x00000000   Number         0  stm32f4xx_syscfg.o ABSOLUTE
    ..\\FWLIB\\src\\stm32f4xx_tim.c          0x00000000   Number         0  stm32f4xx_tim.o ABSOLUTE
    ..\\FWLIB\\src\\stm32f4xx_usart.c        0x00000000   Number         0  stm32f4xx_usart.o ABSOLUTE
    ..\\HARDWARE\\GPS\\gps.c                 0x00000000   Number         0  gps.o ABSOLUTE
    ..\\HARDWARE\\GPS\\m100.c                0x00000000   Number         0  m100.o ABSOLUTE
    ..\\HARDWARE\\IIC\\LIS3MDL.c             0x00000000   Number         0  lis3mdl.o ABSOLUTE
    ..\\HARDWARE\\IIC\\alt_kf.c              0x00000000   Number         0  alt_kf.o ABSOLUTE
    ..\\HARDWARE\\IIC\\dma.c                 0x00000000   Number         0  dma.o ABSOLUTE
    ..\\HARDWARE\\IIC\\error.c               0x00000000   Number         0  error.o ABSOLUTE
    ..\\HARDWARE\\IIC\\flash.c               0x00000000   Number         0  flash.o ABSOLUTE
    ..\\HARDWARE\\IIC\\fliter.c              0x00000000   Number         0  fliter.o ABSOLUTE
    ..\\HARDWARE\\IIC\\hml_sample.c          0x00000000   Number         0  hml_sample.o ABSOLUTE
    ..\\HARDWARE\\IIC\\iic1.c                0x00000000   Number         0  iic1.o ABSOLUTE
    ..\\HARDWARE\\IIC\\iic_fc.c              0x00000000   Number         0  iic_fc.o ABSOLUTE
    ..\\HARDWARE\\IIC\\iic_imu1.c            0x00000000   Number         0  iic_imu1.o ABSOLUTE
    ..\\HARDWARE\\IIC\\iic_soft.c            0x00000000   Number         0  iic_soft.o ABSOLUTE
    ..\\HARDWARE\\IIC\\imu.c                 0x00000000   Number         0  imu.o ABSOLUTE
    ..\\HARDWARE\\IIC\\imu_m.c               0x00000000   Number         0  imu_m.o ABSOLUTE
    ..\\HARDWARE\\IIC\\led_fc.c              0x00000000   Number         0  led_fc.o ABSOLUTE
    ..\\HARDWARE\\IIC\\mpu6050.c             0x00000000   Number         0  mpu6050.o ABSOLUTE
    ..\\HARDWARE\\IIC\\ms5611_2.c            0x00000000   Number         0  ms5611_2.o ABSOLUTE
    ..\\HARDWARE\\IIC\\my_math.c             0x00000000   Number         0  my_math.o ABSOLUTE
    ..\\HARDWARE\\IIC\\time.c                0x00000000   Number         0  time.o ABSOLUTE
    ..\\HARDWARE\\IIC\\ucos_task.c           0x00000000   Number         0  ucos_task.o ABSOLUTE
    ..\\HARDWARE\\IIC\\ultrasonic.c          0x00000000   Number         0  ultrasonic.o ABSOLUTE
    ..\\HARDWARE\\IIC\\usart_fc.c            0x00000000   Number         0  usart_fc.o ABSOLUTE
    ..\\HARDWARE\\IIC\\watch_dog.c           0x00000000   Number         0  watch_dog.o ABSOLUTE
    ..\\HARDWARE\\UKF_OLDX\\nav_ukf.c        0x00000000   Number         0  nav_ukf.o ABSOLUTE
    ..\\HARDWARE\\UKF_OLDX\\ukf_task.c       0x00000000   Number         0  ukf_task.o ABSOLUTE
    ..\\HARDWARE\\flash\\flash_w25.c         0x00000000   Number         0  flash_w25.o ABSOLUTE
    ..\\SYSTEM\\delay\\delay.c               0x00000000   Number         0  delay.o ABSOLUTE
    ..\\SYSTEM\\sys\\sys.c                   0x00000000   Number         0  sys.o ABSOLUTE
    ..\\StatisticsFunctions\\arm_std_f32.c   0x00000000   Number         0  arm_std_f32.o ABSOLUTE
    ..\\UCOSII\\CORE\\os_core.c              0x00000000   Number         0  os_core.o ABSOLUTE
    ..\\UCOSII\\CORE\\os_flag.c              0x00000000   Number         0  os_flag.o ABSOLUTE
    ..\\UCOSII\\CORE\\os_mbox.c              0x00000000   Number         0  os_mbox.o ABSOLUTE
    ..\\UCOSII\\CORE\\os_mem.c               0x00000000   Number         0  os_mem.o ABSOLUTE
    ..\\UCOSII\\CORE\\os_mutex.c             0x00000000   Number         0  os_mutex.o ABSOLUTE
    ..\\UCOSII\\CORE\\os_q.c                 0x00000000   Number         0  os_q.o ABSOLUTE
    ..\\UCOSII\\CORE\\os_sem.c               0x00000000   Number         0  os_sem.o ABSOLUTE
    ..\\UCOSII\\CORE\\os_task.c              0x00000000   Number         0  os_task.o ABSOLUTE
    ..\\UCOSII\\CORE\\os_time.c              0x00000000   Number         0  os_time.o ABSOLUTE
    ..\\UCOSII\\CORE\\os_tmr.c               0x00000000   Number         0  os_tmr.o ABSOLUTE
    ..\\UCOSII\\PORT\\os_cpu_c.c             0x00000000   Number         0  os_cpu_c.o ABSOLUTE
    applications\\cycle_cal_oldx.c           0x00000000   Number         0  cycle_cal_oldx.o ABSOLUTE
    applications\\flow.c                     0x00000000   Number         0  flow.o ABSOLUTE
    applications\cycle_cal_oldx.c            0x00000000   Number         0  cycle_cal_oldx.o ABSOLUTE
    applications\flow.c                      0x00000000   Number         0  flow.o ABSOLUTE
    dc.s                                     0x00000000   Number         0  dc.o ABSOLUTE
    main.c                                   0x00000000   Number         0  main.o ABSOLUTE
    main.c                                   0x00000000   Number         0  main.o ABSOLUTE
    stm32f4xx_it.c                           0x00000000   Number         0  stm32f4xx_it.o ABSOLUTE
    stm32f4xx_it.c                           0x00000000   Number         0  stm32f4xx_it.o ABSOLUTE
    system_stm32f4xx.c                       0x00000000   Number         0  system_stm32f4xx.o ABSOLUTE
    system_stm32f4xx.c                       0x00000000   Number         0  system_stm32f4xx.o ABSOLUTE
    RESET                                    0x08000000   Section      392  startup_stm32f40_41xxx.o(RESET)
    !!!main                                  0x08000188   Section        8  __main.o(!!!main)
    !!!scatter                               0x08000190   Section       52  __scatter.o(!!!scatter)
    !!dczerorl2                              0x080001c4   Section       90  __dczerorl2.o(!!dczerorl2)
    !!handler_zi                             0x08000220   Section       28  __scatter_zi.o(!!handler_zi)
    .ARM.Collect$$libinit$$00000000          0x0800023c   Section        2  libinit.o(.ARM.Collect$$libinit$$00000000)
    .ARM.Collect$$libinit$$00000001          0x0800023e   Section        4  libinit2.o(.ARM.Collect$$libinit$$00000001)
    .ARM.Collect$$libinit$$00000004          0x08000242   Section        0  libinit2.o(.ARM.Collect$$libinit$$00000004)
    .ARM.Collect$$libinit$$0000000A          0x08000242   Section        0  libinit2.o(.ARM.Collect$$libinit$$0000000A)
    .ARM.Collect$$libinit$$0000000C          0x08000242   Section        0  libinit2.o(.ARM.Collect$$libinit$$0000000C)
    .ARM.Collect$$libinit$$0000000E          0x08000242   Section        0  libinit2.o(.ARM.Collect$$libinit$$0000000E)
    .ARM.Collect$$libinit$$00000011          0x08000242   Section        0  libinit2.o(.ARM.Collect$$libinit$$00000011)
    .ARM.Collect$$libinit$$00000013          0x08000242   Section        0  libinit2.o(.ARM.Collect$$libinit$$00000013)
    .ARM.Collect$$libinit$$00000015          0x08000242   Section        0  libinit2.o(.ARM.Collect$$libinit$$00000015)
    .ARM.Collect$$libinit$$00000017          0x08000242   Section        0  libinit2.o(.ARM.Collect$$libinit$$00000017)
    .ARM.Collect$$libinit$$00000019          0x08000242   Section        0  libinit2.o(.ARM.Collect$$libinit$$00000019)
    .ARM.Collect$$libinit$$0000001B          0x08000242   Section        0  libinit2.o(.ARM.Collect$$libinit$$0000001B)
    .ARM.Collect$$libinit$$0000001D          0x08000242   Section        0  libinit2.o(.ARM.Collect$$libinit$$0000001D)
    .ARM.Collect$$libinit$$0000001F          0x08000242   Section        0  libinit2.o(.ARM.Collect$$libinit$$0000001F)
    .ARM.Collect$$libinit$$00000021          0x08000242   Section        0  libinit2.o(.ARM.Collect$$libinit$$00000021)
    .ARM.Collect$$libinit$$00000023          0x08000242   Section        0  libinit2.o(.ARM.Collect$$libinit$$00000023)
    .ARM.Collect$$libinit$$00000025          0x08000242   Section        0  libinit2.o(.ARM.Collect$$libinit$$00000025)
    .ARM.Collect$$libinit$$0000002C          0x08000242   Section        0  libinit2.o(.ARM.Collect$$libinit$$0000002C)
    .ARM.Collect$$libinit$$0000002E          0x08000242   Section        0  libinit2.o(.ARM.Collect$$libinit$$0000002E)
    .ARM.Collect$$libinit$$00000030          0x08000242   Section        0  libinit2.o(.ARM.Collect$$libinit$$00000030)
    .ARM.Collect$$libinit$$00000032          0x08000242   Section        0  libinit2.o(.ARM.Collect$$libinit$$00000032)
    .ARM.Collect$$libinit$$00000033          0x08000242   Section        2  libinit2.o(.ARM.Collect$$libinit$$00000033)
    .ARM.Collect$$libshutdown$$00000000      0x08000244   Section        2  libshutdown.o(.ARM.Collect$$libshutdown$$00000000)
    .ARM.Collect$$libshutdown$$00000002      0x08000246   Section        0  libshutdown2.o(.ARM.Collect$$libshutdown$$00000002)
    .ARM.Collect$$libshutdown$$00000004      0x08000246   Section        0  libshutdown2.o(.ARM.Collect$$libshutdown$$00000004)
    .ARM.Collect$$libshutdown$$00000007      0x08000246   Section        0  libshutdown2.o(.ARM.Collect$$libshutdown$$00000007)
    .ARM.Collect$$libshutdown$$0000000A      0x08000246   Section        0  libshutdown2.o(.ARM.Collect$$libshutdown$$0000000A)
    .ARM.Collect$$libshutdown$$0000000C      0x08000246   Section        0  libshutdown2.o(.ARM.Collect$$libshutdown$$0000000C)
    .ARM.Collect$$libshutdown$$0000000F      0x08000246   Section        0  libshutdown2.o(.ARM.Collect$$libshutdown$$0000000F)
    .ARM.Collect$$libshutdown$$00000010      0x08000246   Section        2  libshutdown2.o(.ARM.Collect$$libshutdown$$00000010)
    .ARM.Collect$$rtentry$$00000000          0x08000248   Section        0  __rtentry.o(.ARM.Collect$$rtentry$$00000000)
    .ARM.Collect$$rtentry$$00000002          0x08000248   Section        0  __rtentry2.o(.ARM.Collect$$rtentry$$00000002)
    .ARM.Collect$$rtentry$$00000004          0x08000248   Section        6  __rtentry4.o(.ARM.Collect$$rtentry$$00000004)
    .ARM.Collect$$rtentry$$00000009          0x0800024e   Section        0  __rtentry2.o(.ARM.Collect$$rtentry$$00000009)
    .ARM.Collect$$rtentry$$0000000A          0x0800024e   Section        4  __rtentry2.o(.ARM.Collect$$rtentry$$0000000A)
    .ARM.Collect$$rtentry$$0000000C          0x08000252   Section        0  __rtentry2.o(.ARM.Collect$$rtentry$$0000000C)
    .ARM.Collect$$rtentry$$0000000D          0x08000252   Section        8  __rtentry2.o(.ARM.Collect$$rtentry$$0000000D)
    .ARM.Collect$$rtexit$$00000000           0x0800025a   Section        2  rtexit.o(.ARM.Collect$$rtexit$$00000000)
    .ARM.Collect$$rtexit$$00000002           0x0800025c   Section        0  rtexit2.o(.ARM.Collect$$rtexit$$00000002)
    .ARM.Collect$$rtexit$$00000003           0x0800025c   Section        4  rtexit2.o(.ARM.Collect$$rtexit$$00000003)
    .ARM.Collect$$rtexit$$00000004           0x08000260   Section        6  rtexit2.o(.ARM.Collect$$rtexit$$00000004)
    .text                                    0x08000268   Section        0  ucos_task.o(.text)
    .text                                    0x08002bf8   Section        0  main.o(.text)
    .text                                    0x08002e88   Section        0  rt_nonfinite.o(.text)
    .text                                    0x08002f88   Section        0  rtgetnan.o(.text)
    .text                                    0x08003050   Section        0  rtgetinf.o(.text)
    .text                                    0x08003184   Section        0  stm32f4xx_it.o(.text)
    .text                                    0x0800319c   Section        0  system_stm32f4xx.o(.text)
    SetSysClock                              0x0800319d   Thumb Code   220  system_stm32f4xx.o(.text)
    .text                                    0x080033ac   Section       64  startup_stm32f40_41xxx.o(.text)
    $v0                                      0x080033ac   Number         0  startup_stm32f40_41xxx.o(.text)
    .text                                    0x080033ec   Section        0  delay.o(.text)
    .text                                    0x080034f4   Section        0  misc.o(.text)
    .text                                    0x080035d4   Section        0  stm32f4xx_gpio.o(.text)
    .text                                    0x08003868   Section        0  stm32f4xx_rcc.o(.text)
    .text                                    0x08003ec4   Section        0  stm32f4xx_syscfg.o(.text)
    .text                                    0x08003f58   Section        0  stm32f4xx_usart.o(.text)
    .text                                    0x080043ac   Section        0  stm32f4xx_tim.o(.text)
    TI4_Config                               0x08004b4b   Thumb Code    80  stm32f4xx_tim.o(.text)
    TI3_Config                               0x08004bad   Thumb Code    72  stm32f4xx_tim.o(.text)
    TI2_Config                               0x08004c0f   Thumb Code    90  stm32f4xx_tim.o(.text)
    TI1_Config                               0x08004c7b   Thumb Code    58  stm32f4xx_tim.o(.text)
    .text                                    0x08005050   Section        0  stm32f4xx_flash.o(.text)
    .text                                    0x080056e4   Section        0  stm32f4xx_exti.o(.text)
    .text                                    0x080057f4   Section        0  stm32f4xx_spi.o(.text)
    .text                                    0x08005c74   Section        0  stm32f4xx_dma.o(.text)
    .text                                    0x0800601c   Section        0  stm32f4xx_iwdg.o(.text)
    .text                                    0x0800605c   Section        0  os_core.o(.text)
    OS_InitTaskStat                          0x08006107   Thumb Code    52  os_core.o(.text)
    OS_InitTaskIdle                          0x0800615d   Thumb Code    52  os_core.o(.text)
    OS_InitEventList                         0x080061a3   Thumb Code    74  os_core.o(.text)
    OS_InitTCBList                           0x080061ed   Thumb Code   106  os_core.o(.text)
    OS_InitRdyList                           0x08006257   Thumb Code    44  os_core.o(.text)
    OS_InitMisc                              0x08006283   Thumb Code    44  os_core.o(.text)
    OS_SchedNew                              0x080062fb   Thumb Code    26  os_core.o(.text)
    .text                                    0x080068f0   Section        0  os_flag.o(.text)
    OS_FlagTaskRdy                           0x08006a67   Thumb Code    82  os_flag.o(.text)
    OS_FlagBlock                             0x08006c21   Thumb Code   152  os_flag.o(.text)
    .text                                    0x080070fc   Section        0  os_mbox.o(.text)
    .text                                    0x080074c8   Section        0  os_q.o(.text)
    .text                                    0x08007ab0   Section        0  os_sem.o(.text)
    .text                                    0x08007e3c   Section        0  os_task.o(.text)
    .text                                    0x08008600   Section        0  os_time.o(.text)
    .text                                    0x080087b0   Section        0  os_tmr.o(.text)
    OSTmr_Alloc                              0x080087b1   Thumb Code    50  os_tmr.o(.text)
    OSTmr_Free                               0x08008843   Thumb Code    58  os_tmr.o(.text)
    OSTmr_Unlink                             0x0800887d   Thumb Code    62  os_tmr.o(.text)
    OSTmr_Link                               0x08008aa3   Thumb Code   100  os_tmr.o(.text)
    OSTmr_Task                               0x08008c69   Thumb Code   114  os_tmr.o(.text)
    OSTmr_InitTask                           0x08008cdb   Thumb Code    50  os_tmr.o(.text)
    .text                                    0x08008de4   Section      200  os_cpu_a.o(.text)
    $v0                                      0x08008de4   Number         0  os_cpu_a.o(.text)
    .text                                    0x08008eac   Section        0  os_cpu_c.o(.text)
    .text                                    0x08009094   Section        0  iic1.o(.text)
    .text                                    0x080094ec   Section        0  iic_soft.o(.text)
    .text                                    0x08009894   Section        0  led_fc.o(.text)
    .text                                    0x08009f68   Section        0  flash.o(.text)
    .text                                    0x0800ae8c   Section        0  flash_w25.o(.text)
    .text                                    0x0800b304   Section        0  time.o(.text)
    .text                                    0x0800b56c   Section        0  dma.o(.text)
    .text                                    0x0800b654   Section        0  watch_dog.o(.text)
    .text                                    0x0800b680   Section        0  gps.o(.text)
    .text                                    0x0800bf84   Section        0  usart_fc.o(.text)
    Send_Data_GOL_LINK                       0x0800c683   Thumb Code    26  usart_fc.o(.text)
    Send_Data_SD                             0x08011c8d   Thumb Code    76  usart_fc.o(.text)
    Send_Data_GPS                            0x08013105   Thumb Code    26  usart_fc.o(.text)
    Send_Data_GOL_LINK_NAV                   0x080131c9   Thumb Code    26  usart_fc.o(.text)
    .text                                    0x08013efc   Section        0  lis3mdl.o(.text)
    Transform                                0x08015309   Thumb Code    14  lis3mdl.o(.text)
    Data_conversion                          0x08015317   Thumb Code   764  lis3mdl.o(.text)
    .text                                    0x08015f74   Section        0  mpu6050.o(.text)
    .text                                    0x0801601c   Section        0  fliter.o(.text)
    .text                                    0x0801692c   Section        0  ultrasonic.o(.text)
    .text                                    0x080172fc   Section        0  my_math.o(.text)
    .text                                    0x08017a80   Section        0  kf_oldx_nav.o(.text)
    inv                                      0x08017a81   Thumb Code  1628  kf_oldx_nav.o(.text)
    rt_powd_snf                              0x080180dd   Thumb Code   592  kf_oldx_nav.o(.text)
    .text                                    0x08018e84   Section        0  nav_ukf.o(.text)
    navUkfPresToAlt                          0x08018f01   Thumb Code    56  nav_ukf.o(.text)
    navUkfCalcEarthRadius                    0x08018f39   Thumb Code   288  nav_ukf.o(.text)
    navUkfCalcGlobalDistance                 0x08019059   Thumb Code   164  nav_ukf.o(.text)
    navUkfCalcLocalDistance                  0x080190fd   Thumb Code    92  nav_ukf.o(.text)
    navUkfRotateVecByRevMatrix               0x08019547   Thumb Code   122  nav_ukf.o(.text)
    navUkfQuatToMatrix                       0x080195c1   Thumb Code   362  nav_ukf.o(.text)
    navUkfRotateQuat                         0x080198b3   Thumb Code   282  nav_ukf.o(.text)
    .text                                    0x0801ce90   Section        0  imu_m.o(.text)
    .text                                    0x0801de90   Section        0  ukf_task.o(.text)
    CalcEarthRadius                          0x0801e1a3   Thumb Code   300  ukf_task.o(.text)
    CalcGlobalDistance                       0x0801e2cf   Thumb Code   136  ukf_task.o(.text)
    CalcGlobalLocation                       0x0801e357   Thumb Code   188  ukf_task.o(.text)
    feed_acc_buf                             0x0801e413   Thumb Code   138  ukf_task.o(.text)
    get_acc_delay                            0x0801e49d   Thumb Code   232  ukf_task.o(.text)
    .text                                    0x0801fd5c   Section        0  alt_kf.o(.text)
    srcdkfCalcSigmaPoints                    0x08020433   Thumb Code   236  alt_kf.o(.text)
    flow_ukf_Update                          0x08021093   Thumb Code   150  alt_kf.o(.text)
    sonar_bubble_sort                        0x080212d1   Thumb Code    96  alt_kf.o(.text)
    altDoPresUpdate                          0x080215ff   Thumb Code  1112  alt_kf.o(.text)
    feed_acc_bufz                            0x08021d99   Thumb Code    78  alt_kf.o(.text)
    get_acc_delayz                           0x08021de7   Thumb Code   102  alt_kf.o(.text)
    gps_ukf_Update                           0x08022441   Thumb Code   892  alt_kf.o(.text)
    .text                                    0x08022d44   Section        0  arm_std_f32.o(.text)
    .text                                    0x08022e44   Section        0  cycle_cal_oldx.o(.text)
    .text                                    0x0802385c   Section        0  flow.o(.text)
    .text                                    0x080243b0   Section        0  h1_free.o(.text)
    .text                                    0x080243fe   Section        0  strstr.o(.text)
    .text                                    0x08024422   Section      100  rt_memcpy_w.o(.text)
    .text                                    0x08024486   Section       78  rt_memclr_w.o(.text)
    .text                                    0x080244d4   Section        0  heapauxi.o(.text)
    .text                                    0x080244dc   Section        8  rt_heap_descriptor_intlibspace.o(.text)
    .text                                    0x080244e4   Section        0  _rserrno.o(.text)
    .text                                    0x080244fc   Section        8  libspace.o(.text)
    .text                                    0x08024504   Section        8  rt_errno_addr_intlibspace.o(.text)
    .text                                    0x0802450c   Section       74  sys_stackheap_outer.o(.text)
    .text                                    0x08024556   Section        0  exit.o(.text)
    .text                                    0x08024568   Section        0  sys_exit.o(.text)
    .text                                    0x08024574   Section        2  use_no_semi.o(.text)
    .text                                    0x08024576   Section        0  indicate_semi.o(.text)
    i.__ARM_fpclassify                       0x08024576   Section        0  fpclassify.o(i.__ARM_fpclassify)
    i.__ARM_fpclassifyf                      0x080245a6   Section        0  fpclassifyf.o(i.__ARM_fpclassifyf)
    i.__hardfp_acos                          0x080245d0   Section        0  acos.o(i.__hardfp_acos)
    i.__hardfp_asin                          0x08024928   Section        0  asin.o(i.__hardfp_asin)
    i.__hardfp_asinf                         0x08024c88   Section        0  asinf.o(i.__hardfp_asinf)
    i.__hardfp_atan2f                        0x08024db4   Section        0  atan2f.o(i.__hardfp_atan2f)
    i.__hardfp_atanf                         0x08025004   Section        0  atanf.o(i.__hardfp_atanf)
    i.__hardfp_cos                           0x08025168   Section        0  cos.o(i.__hardfp_cos)
    i.__hardfp_cosf                          0x08025230   Section        0  cosf.o(i.__hardfp_cosf)
    i.__hardfp_fabs                          0x08025380   Section        0  fabs.o(i.__hardfp_fabs)
    i.__hardfp_floor                         0x08025398   Section        0  floor.o(i.__hardfp_floor)
    i.__hardfp_pow                           0x080254b0   Section        0  pow.o(i.__hardfp_pow)
    i.__hardfp_powf                          0x08026100   Section        0  powf.o(i.__hardfp_powf)
    i.__hardfp_sin                           0x08026768   Section        0  sin.o(i.__hardfp_sin)
    i.__hardfp_sinf                          0x08026830   Section        0  sinf.o(i.__hardfp_sinf)
    i.__hardfp_sqrt                          0x080269c0   Section        0  sqrt.o(i.__hardfp_sqrt)
    i.__ieee754_rem_pio2                     0x08026a40   Section        0  rred.o(i.__ieee754_rem_pio2)
    i.__kernel_cos                           0x08026e78   Section        0  cos_i.o(i.__kernel_cos)
    i.__kernel_poly                          0x08026fe8   Section        0  poly.o(i.__kernel_poly)
    i.__kernel_sin                           0x080270e0   Section        0  sin_i.o(i.__kernel_sin)
    i.__mathlib_dbl_divzero                  0x08027210   Section        0  dunder.o(i.__mathlib_dbl_divzero)
    i.__mathlib_dbl_infnan                   0x08027240   Section        0  dunder.o(i.__mathlib_dbl_infnan)
    i.__mathlib_dbl_infnan2                  0x08027254   Section        0  dunder.o(i.__mathlib_dbl_infnan2)
    i.__mathlib_dbl_invalid                  0x08027268   Section        0  dunder.o(i.__mathlib_dbl_invalid)
    i.__mathlib_dbl_overflow                 0x08027288   Section        0  dunder.o(i.__mathlib_dbl_overflow)
    i.__mathlib_dbl_underflow                0x080272a8   Section        0  dunder.o(i.__mathlib_dbl_underflow)
    i.__mathlib_flt_divzero                  0x080272c8   Section        0  funder.o(i.__mathlib_flt_divzero)
    i.__mathlib_flt_infnan                   0x080272dc   Section        0  funder.o(i.__mathlib_flt_infnan)
    i.__mathlib_flt_infnan2                  0x080272e2   Section        0  funder.o(i.__mathlib_flt_infnan2)
    i.__mathlib_flt_invalid                  0x080272e8   Section        0  funder.o(i.__mathlib_flt_invalid)
    i.__mathlib_flt_overflow                 0x080272f8   Section        0  funder.o(i.__mathlib_flt_overflow)
    i.__mathlib_flt_underflow                0x08027308   Section        0  funder.o(i.__mathlib_flt_underflow)
    i.__mathlib_rredf2                       0x08027318   Section        0  rredf.o(i.__mathlib_rredf2)
    i.fabs                                   0x0802746c   Section        0  fabs.o(i.fabs)
    i.sqrt                                   0x08027484   Section        0  sqrt.o(i.sqrt)
    i.sqrtf                                  0x080274f2   Section        0  sqrtf.o(i.sqrtf)
    x$fpl$basic                              0x08027530   Section       24  basic.o(x$fpl$basic)
    $v0                                      0x08027530   Number         0  basic.o(x$fpl$basic)
    x$fpl$d2f                                0x08027548   Section       98  d2f.o(x$fpl$d2f)
    $v0                                      0x08027548   Number         0  d2f.o(x$fpl$d2f)
    x$fpl$dadd                               0x080275ac   Section      336  daddsub_clz.o(x$fpl$dadd)
    $v0                                      0x080275ac   Number         0  daddsub_clz.o(x$fpl$dadd)
    _dadd1                                   0x080275bd   Thumb Code     0  daddsub_clz.o(x$fpl$dadd)
    x$fpl$dcheck1                            0x080276fc   Section       16  dcheck1.o(x$fpl$dcheck1)
    $v0                                      0x080276fc   Number         0  dcheck1.o(x$fpl$dcheck1)
    x$fpl$dcmpinf                            0x0802770c   Section       24  dcmpi.o(x$fpl$dcmpinf)
    $v0                                      0x0802770c   Number         0  dcmpi.o(x$fpl$dcmpinf)
    x$fpl$ddiv                               0x08027724   Section      688  ddiv.o(x$fpl$ddiv)
    $v0                                      0x08027724   Number         0  ddiv.o(x$fpl$ddiv)
    ddiv_entry                               0x0802772b   Thumb Code     0  ddiv.o(x$fpl$ddiv)
    x$fpl$deqf                               0x080279d4   Section      120  deqf.o(x$fpl$deqf)
    $v0                                      0x080279d4   Number         0  deqf.o(x$fpl$deqf)
    x$fpl$dfix                               0x08027a4c   Section       94  dfix.o(x$fpl$dfix)
    $v0                                      0x08027a4c   Number         0  dfix.o(x$fpl$dfix)
    x$fpl$dflt                               0x08027aaa   Section       46  dflt_clz.o(x$fpl$dflt)
    $v0                                      0x08027aaa   Number         0  dflt_clz.o(x$fpl$dflt)
    x$fpl$dfltu                              0x08027ad8   Section       38  dflt_clz.o(x$fpl$dfltu)
    $v0                                      0x08027ad8   Number         0  dflt_clz.o(x$fpl$dfltu)
    x$fpl$dleqf                              0x08027b00   Section      120  dleqf.o(x$fpl$dleqf)
    $v0                                      0x08027b00   Number         0  dleqf.o(x$fpl$dleqf)
    x$fpl$dmul                               0x08027b78   Section      340  dmul.o(x$fpl$dmul)
    $v0                                      0x08027b78   Number         0  dmul.o(x$fpl$dmul)
    x$fpl$dnaninf                            0x08027ccc   Section      156  dnaninf.o(x$fpl$dnaninf)
    $v0                                      0x08027ccc   Number         0  dnaninf.o(x$fpl$dnaninf)
    x$fpl$dretinf                            0x08027d68   Section       12  dretinf.o(x$fpl$dretinf)
    $v0                                      0x08027d68   Number         0  dretinf.o(x$fpl$dretinf)
    x$fpl$drleqf                             0x08027d74   Section      108  drleqf.o(x$fpl$drleqf)
    $v0                                      0x08027d74   Number         0  drleqf.o(x$fpl$drleqf)
    x$fpl$drsb                               0x08027de0   Section       22  daddsub_clz.o(x$fpl$drsb)
    $v0                                      0x08027de0   Number         0  daddsub_clz.o(x$fpl$drsb)
    x$fpl$dsqrt                              0x08027df8   Section      408  dsqrt_umaal.o(x$fpl$dsqrt)
    $v0                                      0x08027df8   Number         0  dsqrt_umaal.o(x$fpl$dsqrt)
    x$fpl$dsub                               0x08027f90   Section      468  daddsub_clz.o(x$fpl$dsub)
    $v0                                      0x08027f90   Number         0  daddsub_clz.o(x$fpl$dsub)
    _dsub1                                   0x08027fa1   Thumb Code     0  daddsub_clz.o(x$fpl$dsub)
    x$fpl$f2d                                0x08028164   Section       86  f2d.o(x$fpl$f2d)
    $v0                                      0x08028164   Number         0  f2d.o(x$fpl$f2d)
    x$fpl$fnaninf                            0x080281ba   Section      140  fnaninf.o(x$fpl$fnaninf)
    $v0                                      0x080281ba   Number         0  fnaninf.o(x$fpl$fnaninf)
    x$fpl$fpinit                             0x08028246   Section       10  fpinit.o(x$fpl$fpinit)
    $v0                                      0x08028246   Number         0  fpinit.o(x$fpl$fpinit)
    x$fpl$fretinf                            0x08028250   Section       10  fretinf.o(x$fpl$fretinf)
    $v0                                      0x08028250   Number         0  fretinf.o(x$fpl$fretinf)
    x$fpl$retnan                             0x0802825a   Section      100  retnan.o(x$fpl$retnan)
    $v0                                      0x0802825a   Number         0  retnan.o(x$fpl$retnan)
    x$fpl$scalbn                             0x080282be   Section       92  scalbn.o(x$fpl$scalbn)
    $v0                                      0x080282be   Number         0  scalbn.o(x$fpl$scalbn)
    x$fpl$trapveneer                         0x0802831a   Section       48  trapv.o(x$fpl$trapveneer)
    $v0                                      0x0802831a   Number         0  trapv.o(x$fpl$trapveneer)
    .constdata                               0x0802834a   Section      256  os_core.o(.constdata)
    x$fpl$usenofp                            0x0802834a   Section        0  usenofp.o(x$fpl$usenofp)
    .constdata                               0x08028450   Section       60  kf_oldx_nav.o(.constdata)
    dv0                                      0x08028450   Data          24  kf_oldx_nav.o(.constdata)
    I                                        0x08028468   Data          36  kf_oldx_nav.o(.constdata)
    .constdata                               0x08028490   Section      144  ukf_task.o(.constdata)
    .constdata                               0x08028520   Section       80  acos.o(.constdata)
    pS                                       0x08028520   Data          48  acos.o(.constdata)
    qS                                       0x08028550   Data          32  acos.o(.constdata)
    .constdata                               0x08028570   Section       80  asin.o(.constdata)
    pS                                       0x08028570   Data          48  asin.o(.constdata)
    qS                                       0x080285a0   Data          32  asin.o(.constdata)
    .constdata                               0x080285c0   Section      136  pow.o(.constdata)
    bp                                       0x080285c0   Data          16  pow.o(.constdata)
    dp_h                                     0x080285d0   Data          16  pow.o(.constdata)
    dp_l                                     0x080285e0   Data          16  pow.o(.constdata)
    L                                        0x080285f0   Data          48  pow.o(.constdata)
    P                                        0x08028620   Data          40  pow.o(.constdata)
    .constdata                               0x08028648   Section      320  powf.o(.constdata)
    table                                    0x08028648   Data         128  powf.o(.constdata)
    powersof2to1over16top                    0x080286c8   Data          64  powf.o(.constdata)
    powersof2to1over16bot                    0x08028708   Data          64  powf.o(.constdata)
    powersof2to1over16all                    0x08028748   Data          64  powf.o(.constdata)
    .constdata                               0x08028788   Section       48  cos_i.o(.constdata)
    C                                        0x08028788   Data          48  cos_i.o(.constdata)
    .constdata                               0x080287b8   Section        8  qnan.o(.constdata)
    .constdata                               0x080287c0   Section      200  rred.o(.constdata)
    pio2s                                    0x080287c0   Data          48  rred.o(.constdata)
    twooverpi                                0x080287f0   Data         152  rred.o(.constdata)
    .constdata                               0x08028888   Section       32  rredf.o(.constdata)
    twooverpi                                0x08028888   Data          32  rredf.o(.constdata)
    .constdata                               0x080288a8   Section       40  sin_i.o(.constdata)
    S                                        0x080288a8   Data          40  sin_i.o(.constdata)
    .ccm                                     0x20000000   Section    40960  alt_kf.o(.ccm)
    .data                                    0x2000a000   Section      308  ucos_task.o(.data)
    b_IIR_acc                                0x2000a078   Data          40  ucos_task.o(.data)
    a_IIR_acc                                0x2000a0a0   Data          40  ucos_task.o(.data)
    cnt                                      0x2000a106   Data           1  ucos_task.o(.data)
    cnt1                                     0x2000a107   Data           1  ucos_task.o(.data)
    cnt2                                     0x2000a108   Data           1  ucos_task.o(.data)
    cnt3                                     0x2000a109   Data           1  ucos_task.o(.data)
    cnt4                                     0x2000a10a   Data           1  ucos_task.o(.data)
    cnt5                                     0x2000a10b   Data           1  ucos_task.o(.data)
    init                                     0x2000a10c   Data           2  ucos_task.o(.data)
    cnt_init                                 0x2000a10e   Data           2  ucos_task.o(.data)
    cnt_bmp                                  0x2000a110   Data           1  ucos_task.o(.data)
    cnt                                      0x2000a111   Data           1  ucos_task.o(.data)
    cnt1                                     0x2000a112   Data           1  ucos_task.o(.data)
    cnt2                                     0x2000a113   Data           1  ucos_task.o(.data)
    init                                     0x2000a114   Data           1  ucos_task.o(.data)
    cnt_init                                 0x2000a115   Data           1  ucos_task.o(.data)
    cal_sel                                  0x2000a116   Data           1  ucos_task.o(.data)
    off_yaw                                  0x2000a118   Data           4  ucos_task.o(.data)
    cnt                                      0x2000a11c   Data           1  ucos_task.o(.data)
    cnt1                                     0x2000a11d   Data           1  ucos_task.o(.data)
    cnt2                                     0x2000a11e   Data           1  ucos_task.o(.data)
    init                                     0x2000a11f   Data           1  ucos_task.o(.data)
    cnt_init                                 0x2000a120   Data           1  ucos_task.o(.data)
    ekf_gps_cnt                              0x2000a121   Data           1  ucos_task.o(.data)
    cnt                                      0x2000a122   Data           1  ucos_task.o(.data)
    cnt_ground                               0x2000a124   Data           2  ucos_task.o(.data)
    cnt                                      0x2000a126   Data           2  ucos_task.o(.data)
    cnt1                                     0x2000a128   Data           2  ucos_task.o(.data)
    cnt2                                     0x2000a12a   Data           2  ucos_task.o(.data)
    cnt3                                     0x2000a12c   Data           2  ucos_task.o(.data)
    cnt_init                                 0x2000a12e   Data           2  ucos_task.o(.data)
    init                                     0x2000a130   Data           2  ucos_task.o(.data)
    tcnt                                     0x2000a132   Data           1  ucos_task.o(.data)
    cnt                                      0x2000a133   Data           1  ucos_task.o(.data)
    .data                                    0x2000a134   Section       16  main.o(.data)
    .data                                    0x2000a144   Section       24  error.o(.data)
    state                                    0x2000a150   Data           3  error.o(.data)
    cnt_1s                                   0x2000a153   Data           3  error.o(.data)
    state                                    0x2000a156   Data           3  error.o(.data)
    cnt_1s                                   0x2000a159   Data           3  error.o(.data)
    .data                                    0x2000a160   Section       36  rt_nonfinite.o(.data)
    .data                                    0x2000a184   Section       20  system_stm32f4xx.o(.data)
    .data                                    0x2000a198   Section        4  delay.o(.data)
    fac_us                                   0x2000a198   Data           1  delay.o(.data)
    fac_ms                                   0x2000a19a   Data           2  delay.o(.data)
    .data                                    0x2000a19c   Section       16  stm32f4xx_rcc.o(.data)
    APBAHBPrescTable                         0x2000a19c   Data          16  stm32f4xx_rcc.o(.data)
    .data                                    0x2000a1ac   Section       92  os_core.o(.data)
    .data                                    0x2000a208   Section        6  os_cpu_c.o(.data)
    OSTmrCtr                                 0x2000a20c   Data           2  os_cpu_c.o(.data)
    .data                                    0x2000a20e   Section        1  iic_soft.o(.data)
    .data                                    0x2000a210   Section        8  led_fc.o(.data)
    main_state                               0x2000a210   Data           1  led_fc.o(.data)
    mpu_state                                0x2000a211   Data           1  led_fc.o(.data)
    m_state                                  0x2000a212   Data           1  led_fc.o(.data)
    idle_state                               0x2000a213   Data           1  led_fc.o(.data)
    cnt                                      0x2000a214   Data           2  led_fc.o(.data)
    cnt_idle                                 0x2000a216   Data           2  led_fc.o(.data)
    .data                                    0x2000a218   Section        4  flash.o(.data)
    .data                                    0x2000a21c   Section        2  flash_w25.o(.data)
    .data                                    0x2000a220   Section        8  gps.o(.data)
    .data                                    0x2000a228   Section      598  usart_fc.o(.data)
    _data_len                                0x2000a262   Data           1  usart_fc.o(.data)
    _data_cnt                                0x2000a263   Data           1  usart_fc.o(.data)
    _data_len_u1                             0x2000a272   Data           1  usart_fc.o(.data)
    _data_cnt_u1                             0x2000a273   Data           1  usart_fc.o(.data)
    _data_len4                               0x2000a429   Data           1  usart_fc.o(.data)
    _data_cnt4                               0x2000a42a   Data           1  usart_fc.o(.data)
    _data_len3                               0x2000a434   Data           1  usart_fc.o(.data)
    _data_cnt3                               0x2000a435   Data           1  usart_fc.o(.data)
    flag                                     0x2000a441   Data           1  usart_fc.o(.data)
    mag_flag                                 0x2000a442   Data           1  usart_fc.o(.data)
    _data_len                                0x2000a443   Data           1  usart_fc.o(.data)
    _data_cnt                                0x2000a444   Data           1  usart_fc.o(.data)
    state                                    0x2000a445   Data           1  usart_fc.o(.data)
    state0                                   0x2000a446   Data           1  usart_fc.o(.data)
    cnt_buf                                  0x2000a447   Data           1  usart_fc.o(.data)
    state                                    0x2000a448   Data           1  usart_fc.o(.data)
    cnt                                      0x2000a44a   Data           2  usart_fc.o(.data)
    off                                      0x2000a44c   Data           4  usart_fc.o(.data)
    init_flag                                0x2000a450   Data           1  usart_fc.o(.data)
    state                                    0x2000a451   Data           1  usart_fc.o(.data)
    cnt                                      0x2000a452   Data           2  usart_fc.o(.data)
    state                                    0x2000a454   Data           1  usart_fc.o(.data)
    cnt                                      0x2000a456   Data           2  usart_fc.o(.data)
    state                                    0x2000a458   Data           1  usart_fc.o(.data)
    cnt                                      0x2000a45a   Data           2  usart_fc.o(.data)
    flag                                     0x2000a45c   Data           1  usart_fc.o(.data)
    m100_h_off                               0x2000a460   Data           4  usart_fc.o(.data)
    m100_hr                                  0x2000a464   Data           4  usart_fc.o(.data)
    cnt                                      0x2000a468   Data           2  usart_fc.o(.data)
    state0                                   0x2000a46a   Data           1  usart_fc.o(.data)
    cnt_buf                                  0x2000a46b   Data           1  usart_fc.o(.data)
    ultra_tmp                                0x2000a46c   Data           1  usart_fc.o(.data)
    state                                    0x2000a46d   Data           1  usart_fc.o(.data)
    cnt                                      0x2000a46e   Data           1  usart_fc.o(.data)
    flag                                     0x2000a46f   Data           1  usart_fc.o(.data)
    m100_hr                                  0x2000a470   Data           4  usart_fc.o(.data)
    cnt                                      0x2000a474   Data           4  usart_fc.o(.data)
    flag                                     0x2000a478   Data           1  usart_fc.o(.data)
    cnt                                      0x2000a479   Data           4  usart_fc.o(.data)
    flag                                     0x2000a47d   Data           1  usart_fc.o(.data)
    .data                                    0x2000a480   Section      623  lis3mdl.o(.data)
    b_IIR                                    0x2000a498   Data          88  lis3mdl.o(.data)
    a_IIR                                    0x2000a4f0   Data          88  lis3mdl.o(.data)
    b_IIR_gro                                0x2000a548   Data          88  lis3mdl.o(.data)
    a_IIR_gro                                0x2000a5a0   Data          88  lis3mdl.o(.data)
    b_IIR_mag                                0x2000a5f8   Data          88  lis3mdl.o(.data)
    a_IIR_mag                                0x2000a650   Data          88  lis3mdl.o(.data)
    filter_cnt                               0x2000a6a8   Data           1  lis3mdl.o(.data)
    filter_cnt_old                           0x2000a6a9   Data           1  lis3mdl.o(.data)
    pre_off                                  0x2000a6b4   Data           4  lis3mdl.o(.data)
    init                                     0x2000a6b8   Data           1  lis3mdl.o(.data)
    cnt                                      0x2000a6b9   Data           1  lis3mdl.o(.data)
    MagMAX                                   0x2000a6bc   Data          12  lis3mdl.o(.data)
    MagMIN                                   0x2000a6c8   Data          12  lis3mdl.o(.data)
    cnt_m                                    0x2000a6d4   Data           2  lis3mdl.o(.data)
    hml_cal_temp                             0x2000a6d6   Data           1  lis3mdl.o(.data)
    state_cal_hml                            0x2000a6d7   Data           1  lis3mdl.o(.data)
    init                                     0x2000a6d8   Data           1  lis3mdl.o(.data)
    cnt1                                     0x2000a6da   Data           2  lis3mdl.o(.data)
    acc_cal_temp                             0x2000a6dc   Data           1  lis3mdl.o(.data)
    gro_cal_temp                             0x2000a6dd   Data           1  lis3mdl.o(.data)
    state_cal_acc                            0x2000a6de   Data           1  lis3mdl.o(.data)
    state_cal_gro                            0x2000a6df   Data           1  lis3mdl.o(.data)
    init                                     0x2000a6e0   Data           1  lis3mdl.o(.data)
    acc_3d_step_reg                          0x2000a6e1   Data           1  lis3mdl.o(.data)
    acc_3d_step_imu                          0x2000a6e2   Data           1  lis3mdl.o(.data)
    init                                     0x2000a6e3   Data           1  lis3mdl.o(.data)
    cnt                                      0x2000a6e4   Data           1  lis3mdl.o(.data)
    yaw_reg                                  0x2000a6e8   Data           4  lis3mdl.o(.data)
    state                                    0x2000a6ec   Data           3  lis3mdl.o(.data)
    .data                                    0x2000a6f0   Section      125  ms5611_2.o(.data)
    Now_doing                                0x2000a6f0   Data           1  ms5611_2.o(.data)
    Current_delay                            0x2000a6f4   Data           4  ms5611_2.o(.data)
    Start_Convert_Time                       0x2000a6f8   Data           4  ms5611_2.o(.data)
    tempCache                                0x2000a6fc   Data           4  ms5611_2.o(.data)
    Alt_Offset_m                             0x2000a700   Data           4  ms5611_2.o(.data)
    Alt_offset_Pa                            0x2000a704   Data           4  ms5611_2.o(.data)
    Temp_buffer                              0x2000a748   Data           4  ms5611_2.o(.data)
    Press_buffer                             0x2000a74c   Data           4  ms5611_2.o(.data)
    Alt_buffer                               0x2000a750   Data           4  ms5611_2.o(.data)
    temp_index                               0x2000a754   Data           1  ms5611_2.o(.data)
    press_index                              0x2000a755   Data           1  ms5611_2.o(.data)
    Altitude                                 0x2000a760   Data           4  ms5611_2.o(.data)
    AltPre                                   0x2000a764   Data           4  ms5611_2.o(.data)
    tp                                       0x2000a768   Data           4  ms5611_2.o(.data)
    cnt                                      0x2000a76c   Data           1  ms5611_2.o(.data)
    .data                                    0x2000a770   Section       20  fliter.o(.data)
    pn                                       0x2000a770   Data           1  fliter.o(.data)
    h_tmp_x                                  0x2000a774   Data           4  fliter.o(.data)
    h_tmp_y                                  0x2000a778   Data           4  fliter.o(.data)
    init                                     0x2000a77c   Data           1  fliter.o(.data)
    init                                     0x2000a77d   Data           1  fliter.o(.data)
    LPB_Cnt                                  0x2000a780   Data           4  fliter.o(.data)
    .data                                    0x2000a788   Section      140  ultrasonic.o(.data)
    reg                                      0x2000a800   Data           4  ultrasonic.o(.data)
    reg                                      0x2000a804   Data           4  ultrasonic.o(.data)
    ultra_distance_old                       0x2000a808   Data           4  ultrasonic.o(.data)
    ultra_tmp                                0x2000a80c   Data           1  ultrasonic.o(.data)
    ultra_distance_old                       0x2000a810   Data           4  ultrasonic.o(.data)
    .data                                    0x2000a814   Section       48  hml_sample.o(.data)
    .data                                    0x2000a844   Section     1028  my_math.o(.data)
    .data                                    0x2000ac48   Section      271  nav_ukf.o(.data)
    b_IIR_acc_ukf                            0x2000ac90   Data          88  nav_ukf.o(.data)
    a_IIR_acc_ukf                            0x2000ace8   Data          88  nav_ukf.o(.data)
    init                                     0x2000ad44   Data           1  nav_ukf.o(.data)
    init_cnt                                 0x2000ad45   Data           1  nav_ukf.o(.data)
    cnt                                      0x2000ad46   Data           1  nav_ukf.o(.data)
    init                                     0x2000ad47   Data           1  nav_ukf.o(.data)
    init                                     0x2000ad48   Data           1  nav_ukf.o(.data)
    axis                                     0x2000ad4c   Data           4  nav_ukf.o(.data)
    loops                                    0x2000ad50   Data           4  nav_ukf.o(.data)
    loss_cnt                                 0x2000ad54   Data           2  nav_ukf.o(.data)
    cnt                                      0x2000ad56   Data           1  nav_ukf.o(.data)
    .data                                    0x2000ad58   Section      166  imu.o(.data)
    yaw_correct                              0x2000adf0   Data           4  imu.o(.data)
    yaw_mag                                  0x2000adf4   Data           4  imu.o(.data)
    cnt                                      0x2000adf8   Data           2  imu.o(.data)
    init                                     0x2000adfa   Data           1  imu.o(.data)
    hml_cal_reg                              0x2000adfb   Data           1  imu.o(.data)
    init_mag_cnt                             0x2000adfc   Data           2  imu.o(.data)
    .data                                    0x2000ae00   Section      121  imu_m.o(.data)
    accMagP                                  0x2000ae70   Data           4  imu_m.o(.data)
    MagP                                     0x2000ae74   Data           4  imu_m.o(.data)
    init                                     0x2000ae78   Data           1  imu_m.o(.data)
    .data                                    0x2000ae80   Section      229  ukf_task.o(.data)
    cnt                                      0x2000af40   Data           1  ukf_task.o(.data)
    gps_h_off                                0x2000af44   Data           4  ukf_task.o(.data)
    dposEast                                 0x2000af48   Data           4  ukf_task.o(.data)
    dposNorth                                0x2000af4c   Data           4  ukf_task.o(.data)
    cnt                                      0x2000af50   Data           1  ukf_task.o(.data)
    init_ukf                                 0x2000af52   Data           2  ukf_task.o(.data)
    init_ukf_cnt                             0x2000af54   Data           2  ukf_task.o(.data)
    qr_yaw_init                              0x2000af58   Data           4  ukf_task.o(.data)
    pos_reg                                  0x2000af5c   Data           8  ukf_task.o(.data)
    state_init_flow_pos                      0x2000af64   Data           1  ukf_task.o(.data)
    .data                                    0x2000af68   Section      642  alt_kf.o(.data)
    insert_index                             0x2000afbc   Data           4  alt_kf.o(.data)
    init_cnt                                 0x2000b1b0   Data           2  alt_kf.o(.data)
    height_ctrl_moder                        0x2000b1b2   Data           1  alt_kf.o(.data)
    ultra_distance_old                       0x2000b1b4   Data           4  alt_kf.o(.data)
    cnt_1                                    0x2000b1b8   Data           2  alt_kf.o(.data)
    init                                     0x2000b1ba   Data           1  alt_kf.o(.data)
    cnt                                      0x2000b1bb   Data           1  alt_kf.o(.data)
    wz_speed_old                             0x2000b1bc   Data           4  alt_kf.o(.data)
    temp_r                                   0x2000b1c0   Data           4  alt_kf.o(.data)
    temp                                     0x2000b1c4   Data           4  alt_kf.o(.data)
    cnt_ekf                                  0x2000b1c8   Data           1  alt_kf.o(.data)
    spd_r_imu                                0x2000b1cc   Data           4  alt_kf.o(.data)
    wz                                       0x2000b1d0   Data           4  alt_kf.o(.data)
    cnt_init                                 0x2000b1d4   Data           2  alt_kf.o(.data)
    init_cnt                                 0x2000b1d6   Data           2  alt_kf.o(.data)
    cnt_1m                                   0x2000b1d8   Data           2  alt_kf.o(.data)
    wz                                       0x2000b1dc   Data           4  alt_kf.o(.data)
    acc_temp                                 0x2000b1e0   Data           8  alt_kf.o(.data)
    cnt_init                                 0x2000b1e8   Data           2  alt_kf.o(.data)
    .data                                    0x2000b1ec   Section       97  flow.o(.data)
    FLOW_STATE                               0x2000b1ec   Data           4  flow.o(.data)
    k_scale_pix                              0x2000b1fc   Data           4  flow.o(.data)
    scale_pix                                0x2000b200   Data           4  flow.o(.data)
    rate_threshold                           0x2000b204   Data           4  flow.o(.data)
    flow_k                                   0x2000b208   Data           4  flow.o(.data)
    k_gro_off                                0x2000b20c   Data           4  flow.o(.data)
    scale_px4_flow                           0x2000b210   Data           4  flow.o(.data)
    flow_rad_fix_k                           0x2000b214   Data           8  flow.o(.data)
    flow_rad_fix_k2                          0x2000b21c   Data           4  flow.o(.data)
    dead_rad_fix                             0x2000b220   Data           8  flow.o(.data)
    x_flow_orign_temp                        0x2000b228   Data           4  flow.o(.data)
    y_flow_orign_temp                        0x2000b22c   Data           4  flow.o(.data)
    yaw_comp                                 0x2000b230   Data           8  flow.o(.data)
    flow_filter                              0x2000b238   Data           8  flow.o(.data)
    s_flow                                   0x2000b240   Data           1  flow.o(.data)
    data_cnt                                 0x2000b241   Data           1  flow.o(.data)
    temp                                     0x2000b244   Data           4  flow.o(.data)
    sonar_lp                                 0x2000b248   Data           4  flow.o(.data)
    n_flow                                   0x2000b24c   Data           1  flow.o(.data)
    .bss                                     0x2000b250   Section    44716  ucos_task.o(.bss)
    InPut_IIR_acc                            0x20015e50   Data         120  ucos_task.o(.bss)
    OutPut_IIR_acc                           0x20015ec8   Data         120  ucos_task.o(.bss)
    acc_neo_off                              0x200160b4   Data          12  ucos_task.o(.bss)
    a_br                                     0x200160c0   Data          12  ucos_task.o(.bss)
    acc_temp                                 0x200160cc   Data          12  ucos_task.o(.bss)
    acc_neo_temp                             0x200160d8   Data          12  ucos_task.o(.bss)
    acc_neo_temp1                            0x200160e4   Data          12  ucos_task.o(.bss)
    acc_flt                                  0x200160f0   Data          12  ucos_task.o(.bss)
    .bss                                     0x200160fc   Section     1304  main.o(.bss)
    .bss                                     0x20016614   Section     4744  os_core.o(.bss)
    .bss                                     0x2001789c   Section      200  flash.o(.bss)
    .bss                                     0x20017964   Section     4096  flash_w25.o(.bss)
    .bss                                     0x20018964   Section      360  time.o(.bss)
    .bss                                     0x20018ad0   Section     7692  usart_fc.o(.bss)
    cnt                                      0x2001a790   Data          10  usart_fc.o(.bss)
    flag                                     0x2001a79a   Data          10  usart_fc.o(.bss)
    cnt                                      0x2001a7a4   Data          10  usart_fc.o(.bss)
    flag                                     0x2001a7ae   Data          10  usart_fc.o(.bss)
    RxBuffer                                 0x2001a7b8   Data          50  usart_fc.o(.bss)
    buf                                      0x2001a7ea   Data         100  usart_fc.o(.bss)
    buf                                      0x2001a84e   Data          26  usart_fc.o(.bss)
    buf                                      0x2001a868   Data          36  usart_fc.o(.bss)
    buf                                      0x2001a88c   Data          44  usart_fc.o(.bss)
    m100_attr                                0x2001a8b8   Data          12  usart_fc.o(.bss)
    buf                                      0x2001a8c4   Data           9  usart_fc.o(.bss)
    m100_attr                                0x2001a8d0   Data          12  usart_fc.o(.bss)
    .bss                                     0x2001a8e0   Section     2352  lis3mdl.o(.bss)
    InPut_IIR                                0x2001aae8   Data         264  lis3mdl.o(.bss)
    OutPut_IIR                               0x2001abf0   Data         264  lis3mdl.o(.bss)
    InPut_IIR_gro                            0x2001acf8   Data         264  lis3mdl.o(.bss)
    OutPut_IIR_gro                           0x2001ae00   Data         264  lis3mdl.o(.bss)
    InPut_IIR_mag                            0x2001af08   Data         264  lis3mdl.o(.bss)
    OutPut_IIR_mag                           0x2001b010   Data         264  lis3mdl.o(.bss)
    lis3mdl_tmp                              0x2001b118   Data          28  lis3mdl.o(.bss)
    mpu_fil_tmp                              0x2001b134   Data          28  lis3mdl.o(.bss)
    FILT_BUF                                 0x2001b150   Data         154  lis3mdl.o(.bss)
    Mag_Reg                                  0x2001b1ec   Data          12  lis3mdl.o(.bss)
    MagSum                                   0x2001b1f8   Data          12  lis3mdl.o(.bss)
    ACC_Reg                                  0x2001b204   Data          12  lis3mdl.o(.bss)
    .bss                                     0x2001b210   Section      564  mpu6050.o(.bss)
    .bss                                     0x2001b444   Section     3472  fliter.o(.bss)
    .bss                                     0x2001c1d4   Section       32  ultrasonic.o(.bss)
    .bss                                     0x2001c1f8   Section     2972  nav_ukf.o(.bss)
    InPut_IIR_acc_ukf                        0x2001ca18   Data         264  nav_ukf.o(.bss)
    OutPut_IIR_acc_ukf                       0x2001cb20   Data         264  nav_ukf.o(.bss)
    a_br                                     0x2001cd70   Data          12  nav_ukf.o(.bss)
    acc_temp1                                0x2001cd7c   Data          12  nav_ukf.o(.bss)
    acc_temp                                 0x2001cd88   Data          12  nav_ukf.o(.bss)
    .bss                                     0x2001cd98   Section      196  imu.o(.bss)
    mag_tmp                                  0x2001ce50   Data          12  imu.o(.bss)
    .bss                                     0x2001ce5c   Section       24  imu_m.o(.bss)
    .bss                                     0x2001ce78   Section      800  ukf_task.o(.bss)
    acc_body_buf                             0x2001cf08   Data         320  ukf_task.o(.bss)
    .bss                                     0x2001d198   Section      720  alt_kf.o(.bss)
    sonar_values                             0x2001d1fc   Data          12  alt_kf.o(.bss)
    acc_body_bufz                            0x2001d300   Data         160  alt_kf.o(.bss)
    .bss                                     0x2001d468   Section      168  cycle_cal_oldx.o(.bss)
    .bss                                     0x2001d510   Section      140  flow.o(.bss)
    flow_buf                                 0x2001d510   Data          27  flow.o(.bss)
    flow_buf_rad                             0x2001d52b   Data          45  flow.o(.bss)
    flow_rad_fix                             0x2001d558   Data          16  flow.o(.bss)
    gyro_offset_filtered                     0x2001d578   Data          12  flow.o(.bss)
    att_gyrospeed_filtered                   0x2001d584   Data          12  flow.o(.bss)
    flow_gyrospeed_filtered                  0x2001d590   Data          12  flow.o(.bss)
    .bss                                     0x2001d59c   Section       96  libspace.o(.bss)
    HEAP                                     0x2001d600   Section      512  startup_stm32f40_41xxx.o(HEAP)
    Heap_Mem                                 0x2001d600   Data         512  startup_stm32f40_41xxx.o(HEAP)
    STACK                                    0x2001d800   Section     1024  startup_stm32f40_41xxx.o(STACK)
    Stack_Mem                                0x2001d800   Data        1024  startup_stm32f40_41xxx.o(STACK)
    __initial_sp                             0x2001dc00   Data           0  startup_stm32f40_41xxx.o(STACK)

    Global Symbols

    Symbol Name                              Value     Ov Type        Size  Object(Section)

    BuildAttributes$$THM_ISAv4$E$P$D$K$B$S$7EM$VFPi3$EXTD16$VFPS$VFMA$PE$A:L22UL41UL21$X:L11$S22US41US21$IEEE1$IW$USESV6$~STKCKD$USESV7$~SHL$OTIME$ROPI$IEEEX$EBA8$UX$STANDARDLIB$REQ8$PRES8$EABIv2 0x00000000   Number         0  anon$$obj.o ABSOLUTE
    __ARM_use_no_argv                        0x00000000   Number         0  main.o ABSOLUTE
    __ARM_exceptions_init                     - Undefined Weak Reference
    __alloca_initialize                       - Undefined Weak Reference
    __arm_preinit_                            - Undefined Weak Reference
    __cpp_initialize__aeabi_                  - Undefined Weak Reference
    __cxa_finalize                            - Undefined Weak Reference
    __rt_locale                               - Undefined Weak Reference
    __sigvec_lookup                           - Undefined Weak Reference
    __user_heap_extent                        - Undefined Weak Reference
    _atexit_init                              - Undefined Weak Reference
    _call_atexit_fns                          - Undefined Weak Reference
    _clock_init                               - Undefined Weak Reference
    _fp_trap_init                             - Undefined Weak Reference
    _fp_trap_shutdown                         - Undefined Weak Reference
    _get_lc_collate                           - Undefined Weak Reference
    _get_lc_ctype                             - Undefined Weak Reference
    _get_lc_monetary                          - Undefined Weak Reference
    _get_lc_numeric                           - Undefined Weak Reference
    _get_lc_time                              - Undefined Weak Reference
    _getenv_init                              - Undefined Weak Reference
    _handle_redirection                       - Undefined Weak Reference
    _initio                                   - Undefined Weak Reference
    _mutex_acquire                            - Undefined Weak Reference
    _mutex_free                               - Undefined Weak Reference
    _mutex_release                            - Undefined Weak Reference
    _rand_init                                - Undefined Weak Reference
    _signal_finish                            - Undefined Weak Reference
    _signal_init                              - Undefined Weak Reference
    _terminateio                              - Undefined Weak Reference
    __Vectors_Size                           0x00000188   Number         0  startup_stm32f40_41xxx.o ABSOLUTE
    __Vectors                                0x08000000   Data           4  startup_stm32f40_41xxx.o(RESET)
    __Vectors_End                            0x08000188   Data           0  startup_stm32f40_41xxx.o(RESET)
    __main                                   0x08000189   Thumb Code     8  __main.o(!!!main)
    __scatterload                            0x08000191   Thumb Code     0  __scatter.o(!!!scatter)
    __scatterload_rt2                        0x08000191   Thumb Code    44  __scatter.o(!!!scatter)
    __scatterload_rt2_thumb_only             0x08000191   Thumb Code     0  __scatter.o(!!!scatter)
    __scatterload_null                       0x0800019f   Thumb Code     0  __scatter.o(!!!scatter)
    __decompress                             0x080001c5   Thumb Code    90  __dczerorl2.o(!!dczerorl2)
    __decompress1                            0x080001c5   Thumb Code     0  __dczerorl2.o(!!dczerorl2)
    __scatterload_zeroinit                   0x08000221   Thumb Code    28  __scatter_zi.o(!!handler_zi)
    __rt_lib_init                            0x0800023d   Thumb Code     0  libinit.o(.ARM.Collect$$libinit$$00000000)
    __rt_lib_init_fp_1                       0x0800023f   Thumb Code     0  libinit2.o(.ARM.Collect$$libinit$$00000001)
    __rt_lib_init_alloca_1                   0x08000243   Thumb Code     0  libinit2.o(.ARM.Collect$$libinit$$0000002E)
    __rt_lib_init_argv_1                     0x08000243   Thumb Code     0  libinit2.o(.ARM.Collect$$libinit$$0000002C)
    __rt_lib_init_atexit_1                   0x08000243   Thumb Code     0  libinit2.o(.ARM.Collect$$libinit$$0000001B)
    __rt_lib_init_clock_1                    0x08000243   Thumb Code     0  libinit2.o(.ARM.Collect$$libinit$$00000021)
    __rt_lib_init_cpp_1                      0x08000243   Thumb Code     0  libinit2.o(.ARM.Collect$$libinit$$00000032)
    __rt_lib_init_exceptions_1               0x08000243   Thumb Code     0  libinit2.o(.ARM.Collect$$libinit$$00000030)
    __rt_lib_init_fp_trap_1                  0x08000243   Thumb Code     0  libinit2.o(.ARM.Collect$$libinit$$0000001F)
    __rt_lib_init_getenv_1                   0x08000243   Thumb Code     0  libinit2.o(.ARM.Collect$$libinit$$00000023)
    __rt_lib_init_heap_1                     0x08000243   Thumb Code     0  libinit2.o(.ARM.Collect$$libinit$$0000000A)
    __rt_lib_init_lc_collate_1               0x08000243   Thumb Code     0  libinit2.o(.ARM.Collect$$libinit$$00000011)
    __rt_lib_init_lc_ctype_1                 0x08000243   Thumb Code     0  libinit2.o(.ARM.Collect$$libinit$$00000013)
    __rt_lib_init_lc_monetary_1              0x08000243   Thumb Code     0  libinit2.o(.ARM.Collect$$libinit$$00000015)
    __rt_lib_init_lc_numeric_1               0x08000243   Thumb Code     0  libinit2.o(.ARM.Collect$$libinit$$00000017)
    __rt_lib_init_lc_time_1                  0x08000243   Thumb Code     0  libinit2.o(.ARM.Collect$$libinit$$00000019)
    __rt_lib_init_preinit_1                  0x08000243   Thumb Code     0  libinit2.o(.ARM.Collect$$libinit$$00000004)
    __rt_lib_init_rand_1                     0x08000243   Thumb Code     0  libinit2.o(.ARM.Collect$$libinit$$0000000E)
    __rt_lib_init_return                     0x08000243   Thumb Code     0  libinit2.o(.ARM.Collect$$libinit$$00000033)
    __rt_lib_init_signal_1                   0x08000243   Thumb Code     0  libinit2.o(.ARM.Collect$$libinit$$0000001D)
    __rt_lib_init_stdio_1                    0x08000243   Thumb Code     0  libinit2.o(.ARM.Collect$$libinit$$00000025)
    __rt_lib_init_user_alloc_1               0x08000243   Thumb Code     0  libinit2.o(.ARM.Collect$$libinit$$0000000C)
    __rt_lib_shutdown                        0x08000245   Thumb Code     0  libshutdown.o(.ARM.Collect$$libshutdown$$00000000)
    __rt_lib_shutdown_cpp_1                  0x08000247   Thumb Code     0  libshutdown2.o(.ARM.Collect$$libshutdown$$00000002)
    __rt_lib_shutdown_fp_trap_1              0x08000247   Thumb Code     0  libshutdown2.o(.ARM.Collect$$libshutdown$$00000007)
    __rt_lib_shutdown_heap_1                 0x08000247   Thumb Code     0  libshutdown2.o(.ARM.Collect$$libshutdown$$0000000F)
    __rt_lib_shutdown_return                 0x08000247   Thumb Code     0  libshutdown2.o(.ARM.Collect$$libshutdown$$00000010)
    __rt_lib_shutdown_signal_1               0x08000247   Thumb Code     0  libshutdown2.o(.ARM.Collect$$libshutdown$$0000000A)
    __rt_lib_shutdown_stdio_1                0x08000247   Thumb Code     0  libshutdown2.o(.ARM.Collect$$libshutdown$$00000004)
    __rt_lib_shutdown_user_alloc_1           0x08000247   Thumb Code     0  libshutdown2.o(.ARM.Collect$$libshutdown$$0000000C)
    __rt_entry                               0x08000249   Thumb Code     0  __rtentry.o(.ARM.Collect$$rtentry$$00000000)
    __rt_entry_presh_1                       0x08000249   Thumb Code     0  __rtentry2.o(.ARM.Collect$$rtentry$$00000002)
    __rt_entry_sh                            0x08000249   Thumb Code     0  __rtentry4.o(.ARM.Collect$$rtentry$$00000004)
    __rt_entry_li                            0x0800024f   Thumb Code     0  __rtentry2.o(.ARM.Collect$$rtentry$$0000000A)
    __rt_entry_postsh_1                      0x0800024f   Thumb Code     0  __rtentry2.o(.ARM.Collect$$rtentry$$00000009)
    __rt_entry_main                          0x08000253   Thumb Code     0  __rtentry2.o(.ARM.Collect$$rtentry$$0000000D)
    __rt_entry_postli_1                      0x08000253   Thumb Code     0  __rtentry2.o(.ARM.Collect$$rtentry$$0000000C)
    __rt_exit                                0x0800025b   Thumb Code     0  rtexit.o(.ARM.Collect$$rtexit$$00000000)
    __rt_exit_ls                             0x0800025d   Thumb Code     0  rtexit2.o(.ARM.Collect$$rtexit$$00000003)
    __rt_exit_prels_1                        0x0800025d   Thumb Code     0  rtexit2.o(.ARM.Collect$$rtexit$$00000002)
    __rt_exit_exit                           0x08000261   Thumb Code     0  rtexit2.o(.ARM.Collect$$rtexit$$00000004)
    inner_task                               0x08000269   Thumb Code   800  ucos_task.o(.text)
    outer_task                               0x08000589   Thumb Code   892  ucos_task.o(.text)
    ekf_task                                 0x08000905   Thumb Code   806  ucos_task.o(.text)
    baro_task                                0x08000c2b   Thumb Code    18  ucos_task.o(.text)
    sonar_task                               0x08000c3d   Thumb Code    76  ucos_task.o(.text)
    flow_sample                              0x08000c89   Thumb Code  1290  ucos_task.o(.text)
    flow_task1                               0x08001193   Thumb Code  2290  ucos_task.o(.text)
    TIM3_IRQHandler                          0x08001a85   Thumb Code  4134  ucos_task.o(.text)
    error_task                               0x08002aab   Thumb Code   206  ucos_task.o(.text)
    tmr1_callback                            0x08002b79   Thumb Code    44  ucos_task.o(.text)
    tmr2_callback                            0x08002ba5   Thumb Code    12  ucos_task.o(.text)
    tmr3_callback                            0x08002bb1   Thumb Code     2  ucos_task.o(.text)
    cpuGetFlashSize                          0x08002bf9   Thumb Code     6  main.o(.text)
    cpuidGetId                               0x08002bff   Thumb Code    28  main.o(.text)
    start_task                               0x08002c1b   Thumb Code   192  main.o(.text)
    main                                     0x08002cdb   Thumb Code   276  main.o(.text)
    flags_task                               0x08002def   Thumb Code    38  main.o(.text)
    rt_InitInfAndNaN                         0x08002e89   Thumb Code    66  rt_nonfinite.o(.text)
    rtIsInf                                  0x08002ecb   Thumb Code    66  rt_nonfinite.o(.text)
    rtIsInfF                                 0x08002f0d   Thumb Code    40  rt_nonfinite.o(.text)
    rtIsNaN                                  0x08002f35   Thumb Code    40  rt_nonfinite.o(.text)
    rtIsNaNF                                 0x08002f5d   Thumb Code    18  rt_nonfinite.o(.text)
    rtGetNaNF                                0x08002f89   Thumb Code    48  rtgetnan.o(.text)
    rtGetNaN                                 0x08002fb9   Thumb Code   134  rtgetnan.o(.text)
    rtGetInfF                                0x08003051   Thumb Code    14  rtgetinf.o(.text)
    rtGetInf                                 0x0800305f   Thumb Code   130  rtgetinf.o(.text)
    rtGetMinusInfF                           0x080030e1   Thumb Code    12  rtgetinf.o(.text)
    rtGetMinusInf                            0x080030ed   Thumb Code   130  rtgetinf.o(.text)
    NMI_Handler                              0x08003185   Thumb Code     2  stm32f4xx_it.o(.text)
    HardFault_Handler                        0x08003187   Thumb Code     4  stm32f4xx_it.o(.text)
    MemManage_Handler                        0x0800318b   Thumb Code     4  stm32f4xx_it.o(.text)
    BusFault_Handler                         0x0800318f   Thumb Code     4  stm32f4xx_it.o(.text)
    UsageFault_Handler                       0x08003193   Thumb Code     4  stm32f4xx_it.o(.text)
    SVC_Handler                              0x08003197   Thumb Code     2  stm32f4xx_it.o(.text)
    DebugMon_Handler                         0x08003199   Thumb Code     2  stm32f4xx_it.o(.text)
    SystemInit                               0x08003279   Thumb Code    88  system_stm32f4xx.o(.text)
    SystemCoreClockUpdate                    0x080032d1   Thumb Code   174  system_stm32f4xx.o(.text)
    Reset_Handler                            0x080033ad   Thumb Code     8  startup_stm32f40_41xxx.o(.text)
    ADC_IRQHandler                           0x080033c7   Thumb Code     0  startup_stm32f40_41xxx.o(.text)
    CAN1_RX0_IRQHandler                      0x080033c7   Thumb Code     0  startup_stm32f40_41xxx.o(.text)
    CAN1_RX1_IRQHandler                      0x080033c7   Thumb Code     0  startup_stm32f40_41xxx.o(.text)
    CAN1_SCE_IRQHandler                      0x080033c7   Thumb Code     0  startup_stm32f40_41xxx.o(.text)
    CAN1_TX_IRQHandler                       0x080033c7   Thumb Code     0  startup_stm32f40_41xxx.o(.text)
    CAN2_RX0_IRQHandler                      0x080033c7   Thumb Code     0  startup_stm32f40_41xxx.o(.text)
    CAN2_RX1_IRQHandler                      0x080033c7   Thumb Code     0  startup_stm32f40_41xxx.o(.text)
    CAN2_SCE_IRQHandler                      0x080033c7   Thumb Code     0  startup_stm32f40_41xxx.o(.text)
    CAN2_TX_IRQHandler                       0x080033c7   Thumb Code     0  startup_stm32f40_41xxx.o(.text)
    CRYP_IRQHandler                          0x080033c7   Thumb Code     0  startup_stm32f40_41xxx.o(.text)
    DCMI_IRQHandler                          0x080033c7   Thumb Code     0  startup_stm32f40_41xxx.o(.text)
    DMA1_Stream0_IRQHandler                  0x080033c7   Thumb Code     0  startup_stm32f40_41xxx.o(.text)
    DMA1_Stream1_IRQHandler                  0x080033c7   Thumb Code     0  startup_stm32f40_41xxx.o(.text)
    DMA1_Stream2_IRQHandler                  0x080033c7   Thumb Code     0  startup_stm32f40_41xxx.o(.text)
    DMA1_Stream3_IRQHandler                  0x080033c7   Thumb Code     0  startup_stm32f40_41xxx.o(.text)
    DMA1_Stream4_IRQHandler                  0x080033c7   Thumb Code     0  startup_stm32f40_41xxx.o(.text)
    DMA1_Stream5_IRQHandler                  0x080033c7   Thumb Code     0  startup_stm32f40_41xxx.o(.text)
    DMA1_Stream6_IRQHandler                  0x080033c7   Thumb Code     0  startup_stm32f40_41xxx.o(.text)
    DMA1_Stream7_IRQHandler                  0x080033c7   Thumb Code     0  startup_stm32f40_41xxx.o(.text)
    DMA2_Stream0_IRQHandler                  0x080033c7   Thumb Code     0  startup_stm32f40_41xxx.o(.text)
    DMA2_Stream1_IRQHandler                  0x080033c7   Thumb Code     0  startup_stm32f40_41xxx.o(.text)
    DMA2_Stream2_IRQHandler                  0x080033c7   Thumb Code     0  startup_stm32f40_41xxx.o(.text)
    DMA2_Stream3_IRQHandler                  0x080033c7   Thumb Code     0  startup_stm32f40_41xxx.o(.text)
    DMA2_Stream4_IRQHandler                  0x080033c7   Thumb Code     0  startup_stm32f40_41xxx.o(.text)
    DMA2_Stream5_IRQHandler                  0x080033c7   Thumb Code     0  startup_stm32f40_41xxx.o(.text)
    DMA2_Stream6_IRQHandler                  0x080033c7   Thumb Code     0  startup_stm32f40_41xxx.o(.text)
    DMA2_Stream7_IRQHandler                  0x080033c7   Thumb Code     0  startup_stm32f40_41xxx.o(.text)
    ETH_IRQHandler                           0x080033c7   Thumb Code     0  startup_stm32f40_41xxx.o(.text)
    ETH_WKUP_IRQHandler                      0x080033c7   Thumb Code     0  startup_stm32f40_41xxx.o(.text)
    EXTI0_IRQHandler                         0x080033c7   Thumb Code     0  startup_stm32f40_41xxx.o(.text)
    EXTI1_IRQHandler                         0x080033c7   Thumb Code     0  startup_stm32f40_41xxx.o(.text)
    EXTI2_IRQHandler                         0x080033c7   Thumb Code     0  startup_stm32f40_41xxx.o(.text)
    EXTI3_IRQHandler                         0x080033c7   Thumb Code     0  startup_stm32f40_41xxx.o(.text)
    EXTI4_IRQHandler                         0x080033c7   Thumb Code     0  startup_stm32f40_41xxx.o(.text)
    EXTI9_5_IRQHandler                       0x080033c7   Thumb Code     0  startup_stm32f40_41xxx.o(.text)
    FLASH_IRQHandler                         0x080033c7   Thumb Code     0  startup_stm32f40_41xxx.o(.text)
    FPU_IRQHandler                           0x080033c7   Thumb Code     0  startup_stm32f40_41xxx.o(.text)
    FSMC_IRQHandler                          0x080033c7   Thumb Code     0  startup_stm32f40_41xxx.o(.text)
    HASH_RNG_IRQHandler                      0x080033c7   Thumb Code     0  startup_stm32f40_41xxx.o(.text)
    I2C1_ER_IRQHandler                       0x080033c7   Thumb Code     0  startup_stm32f40_41xxx.o(.text)
    I2C1_EV_IRQHandler                       0x080033c7   Thumb Code     0  startup_stm32f40_41xxx.o(.text)
    I2C2_ER_IRQHandler                       0x080033c7   Thumb Code     0  startup_stm32f40_41xxx.o(.text)
    I2C2_EV_IRQHandler                       0x080033c7   Thumb Code     0  startup_stm32f40_41xxx.o(.text)
    I2C3_ER_IRQHandler                       0x080033c7   Thumb Code     0  startup_stm32f40_41xxx.o(.text)
    I2C3_EV_IRQHandler                       0x080033c7   Thumb Code     0  startup_stm32f40_41xxx.o(.text)
    OTG_FS_IRQHandler                        0x080033c7   Thumb Code     0  startup_stm32f40_41xxx.o(.text)
    OTG_FS_WKUP_IRQHandler                   0x080033c7   Thumb Code     0  startup_stm32f40_41xxx.o(.text)
    OTG_HS_EP1_IN_IRQHandler                 0x080033c7   Thumb Code     0  startup_stm32f40_41xxx.o(.text)
    OTG_HS_EP1_OUT_IRQHandler                0x080033c7   Thumb Code     0  startup_stm32f40_41xxx.o(.text)
    OTG_HS_IRQHandler                        0x080033c7   Thumb Code     0  startup_stm32f40_41xxx.o(.text)
    OTG_HS_WKUP_IRQHandler                   0x080033c7   Thumb Code     0  startup_stm32f40_41xxx.o(.text)
    PVD_IRQHandler                           0x080033c7   Thumb Code     0  startup_stm32f40_41xxx.o(.text)
    RCC_IRQHandler                           0x080033c7   Thumb Code     0  startup_stm32f40_41xxx.o(.text)
    RTC_Alarm_IRQHandler                     0x080033c7   Thumb Code     0  startup_stm32f40_41xxx.o(.text)
    RTC_WKUP_IRQHandler                      0x080033c7   Thumb Code     0  startup_stm32f40_41xxx.o(.text)
    SDIO_IRQHandler                          0x080033c7   Thumb Code     0  startup_stm32f40_41xxx.o(.text)
    SPI1_IRQHandler                          0x080033c7   Thumb Code     0  startup_stm32f40_41xxx.o(.text)
    SPI2_IRQHandler                          0x080033c7   Thumb Code     0  startup_stm32f40_41xxx.o(.text)
    SPI3_IRQHandler                          0x080033c7   Thumb Code     0  startup_stm32f40_41xxx.o(.text)
    TAMP_STAMP_IRQHandler                    0x080033c7   Thumb Code     0  startup_stm32f40_41xxx.o(.text)
    TIM1_BRK_TIM9_IRQHandler                 0x080033c7   Thumb Code     0  startup_stm32f40_41xxx.o(.text)
    TIM1_CC_IRQHandler                       0x080033c7   Thumb Code     0  startup_stm32f40_41xxx.o(.text)
    TIM1_TRG_COM_TIM11_IRQHandler            0x080033c7   Thumb Code     0  startup_stm32f40_41xxx.o(.text)
    TIM1_UP_TIM10_IRQHandler                 0x080033c7   Thumb Code     0  startup_stm32f40_41xxx.o(.text)
    TIM2_IRQHandler                          0x080033c7   Thumb Code     0  startup_stm32f40_41xxx.o(.text)
    TIM4_IRQHandler                          0x080033c7   Thumb Code     0  startup_stm32f40_41xxx.o(.text)
    TIM5_IRQHandler                          0x080033c7   Thumb Code     0  startup_stm32f40_41xxx.o(.text)
    TIM6_DAC_IRQHandler                      0x080033c7   Thumb Code     0  startup_stm32f40_41xxx.o(.text)
    TIM8_BRK_TIM12_IRQHandler                0x080033c7   Thumb Code     0  startup_stm32f40_41xxx.o(.text)
    TIM8_CC_IRQHandler                       0x080033c7   Thumb Code     0  startup_stm32f40_41xxx.o(.text)
    TIM8_TRG_COM_TIM14_IRQHandler            0x080033c7   Thumb Code     0  startup_stm32f40_41xxx.o(.text)
    TIM8_UP_TIM13_IRQHandler                 0x080033c7   Thumb Code     0  startup_stm32f40_41xxx.o(.text)
    USART6_IRQHandler                        0x080033c7   Thumb Code     0  startup_stm32f40_41xxx.o(.text)
    WWDG_IRQHandler                          0x080033c7   Thumb Code     0  startup_stm32f40_41xxx.o(.text)
    __user_initial_stackheap                 0x080033c9   Thumb Code     0  startup_stm32f40_41xxx.o(.text)
    SysTick_Handler                          0x080033ed   Thumb Code    16  delay.o(.text)
    delay_init                               0x080033fd   Thumb Code    76  delay.o(.text)
    delay_us                                 0x08003449   Thumb Code    86  delay.o(.text)
    delay_ms                                 0x0800349f   Thumb Code    68  delay.o(.text)
    NVIC_PriorityGroupConfig                 0x080034f5   Thumb Code    10  misc.o(.text)
    NVIC_Init                                0x080034ff   Thumb Code   106  misc.o(.text)
    NVIC_SetVectorTable                      0x08003569   Thumb Code    14  misc.o(.text)
    NVIC_SystemLPConfig                      0x08003577   Thumb Code    34  misc.o(.text)
    SysTick_CLKSourceConfig                  0x08003599   Thumb Code    40  misc.o(.text)
    GPIO_DeInit                              0x080035d5   Thumb Code   268  stm32f4xx_gpio.o(.text)
    GPIO_Init                                0x080036e1   Thumb Code   144  stm32f4xx_gpio.o(.text)
    GPIO_StructInit                          0x08003771   Thumb Code    18  stm32f4xx_gpio.o(.text)
    GPIO_PinLockConfig                       0x08003783   Thumb Code    34  stm32f4xx_gpio.o(.text)
    GPIO_ReadInputDataBit                    0x080037a5   Thumb Code    18  stm32f4xx_gpio.o(.text)
    GPIO_ReadInputData                       0x080037b7   Thumb Code     8  stm32f4xx_gpio.o(.text)
    GPIO_ReadOutputDataBit                   0x080037bf   Thumb Code    18  stm32f4xx_gpio.o(.text)
    GPIO_ReadOutputData                      0x080037d1   Thumb Code     8  stm32f4xx_gpio.o(.text)
    GPIO_SetBits                             0x080037d9   Thumb Code     4  stm32f4xx_gpio.o(.text)
    GPIO_ResetBits                           0x080037dd   Thumb Code     4  stm32f4xx_gpio.o(.text)
    GPIO_WriteBit                            0x080037e1   Thumb Code    10  stm32f4xx_gpio.o(.text)
    GPIO_Write                               0x080037eb   Thumb Code     4  stm32f4xx_gpio.o(.text)
    GPIO_ToggleBits                          0x080037ef   Thumb Code     8  stm32f4xx_gpio.o(.text)
    GPIO_PinAFConfig                         0x080037f7   Thumb Code    70  stm32f4xx_gpio.o(.text)
    RCC_DeInit                               0x08003869   Thumb Code    82  stm32f4xx_rcc.o(.text)
    RCC_HSEConfig                            0x080038bb   Thumb Code    14  stm32f4xx_rcc.o(.text)
    RCC_GetFlagStatus                        0x080038c9   Thumb Code    60  stm32f4xx_rcc.o(.text)
    RCC_WaitForHSEStartUp                    0x08003905   Thumb Code    56  stm32f4xx_rcc.o(.text)
    RCC_AdjustHSICalibrationValue            0x0800393d   Thumb Code    20  stm32f4xx_rcc.o(.text)
    RCC_HSICmd                               0x08003951   Thumb Code     6  stm32f4xx_rcc.o(.text)
    RCC_LSEConfig                            0x08003957   Thumb Code    46  stm32f4xx_rcc.o(.text)
    RCC_LSICmd                               0x08003985   Thumb Code     6  stm32f4xx_rcc.o(.text)
    RCC_PLLConfig                            0x0800398b   Thumb Code    32  stm32f4xx_rcc.o(.text)
    RCC_PLLCmd                               0x080039ab   Thumb Code     6  stm32f4xx_rcc.o(.text)
    RCC_PLLI2SConfig                         0x080039b1   Thumb Code    14  stm32f4xx_rcc.o(.text)
    RCC_PLLI2SCmd                            0x080039bf   Thumb Code     6  stm32f4xx_rcc.o(.text)
    RCC_PLLSAIConfig                         0x080039c5   Thumb Code    20  stm32f4xx_rcc.o(.text)
    RCC_PLLSAICmd                            0x080039d9   Thumb Code     6  stm32f4xx_rcc.o(.text)
    RCC_ClockSecuritySystemCmd               0x080039df   Thumb Code     6  stm32f4xx_rcc.o(.text)
    RCC_MCO1Config                           0x080039e5   Thumb Code    28  stm32f4xx_rcc.o(.text)
    RCC_MCO2Config                           0x08003a01   Thumb Code    28  stm32f4xx_rcc.o(.text)
    RCC_SYSCLKConfig                         0x08003a1d   Thumb Code    20  stm32f4xx_rcc.o(.text)
    RCC_GetSYSCLKSource                      0x08003a31   Thumb Code    12  stm32f4xx_rcc.o(.text)
    RCC_HCLKConfig                           0x08003a3d   Thumb Code    20  stm32f4xx_rcc.o(.text)
    RCC_PCLK1Config                          0x08003a51   Thumb Code    20  stm32f4xx_rcc.o(.text)
    RCC_PCLK2Config                          0x08003a65   Thumb Code    22  stm32f4xx_rcc.o(.text)
    RCC_GetClocksFreq                        0x08003a7b   Thumb Code   222  stm32f4xx_rcc.o(.text)
    RCC_RTCCLKConfig                         0x08003b59   Thumb Code    54  stm32f4xx_rcc.o(.text)
    RCC_RTCCLKCmd                            0x08003b8f   Thumb Code     8  stm32f4xx_rcc.o(.text)
    RCC_BackupResetCmd                       0x08003b97   Thumb Code     8  stm32f4xx_rcc.o(.text)
    RCC_I2SCLKConfig                         0x08003b9f   Thumb Code     6  stm32f4xx_rcc.o(.text)
    RCC_SAIPLLI2SClkDivConfig                0x08003ba5   Thumb Code    26  stm32f4xx_rcc.o(.text)
    RCC_SAIPLLSAIClkDivConfig                0x08003bbf   Thumb Code    28  stm32f4xx_rcc.o(.text)
    RCC_SAIBlockACLKConfig                   0x08003bdb   Thumb Code    20  stm32f4xx_rcc.o(.text)
    RCC_SAIBlockBCLKConfig                   0x08003bef   Thumb Code    20  stm32f4xx_rcc.o(.text)
    RCC_LTDCCLKDivConfig                     0x08003c03   Thumb Code    20  stm32f4xx_rcc.o(.text)
    RCC_TIMCLKPresConfig                     0x08003c17   Thumb Code     6  stm32f4xx_rcc.o(.text)
    RCC_AHB1PeriphClockCmd                   0x08003c1d   Thumb Code    34  stm32f4xx_rcc.o(.text)
    RCC_AHB2PeriphClockCmd                   0x08003c3f   Thumb Code    78  stm32f4xx_rcc.o(.text)
    RCC_AHB3PeriphClockCmd                   0x08003c8d   Thumb Code    34  stm32f4xx_rcc.o(.text)
    RCC_APB1PeriphClockCmd                   0x08003caf   Thumb Code    34  stm32f4xx_rcc.o(.text)
    RCC_APB2PeriphClockCmd                   0x08003cd1   Thumb Code    34  stm32f4xx_rcc.o(.text)
    RCC_AHB1PeriphResetCmd                   0x08003cf3   Thumb Code    34  stm32f4xx_rcc.o(.text)
    RCC_AHB2PeriphResetCmd                   0x08003d15   Thumb Code    34  stm32f4xx_rcc.o(.text)
    RCC_AHB3PeriphResetCmd                   0x08003d37   Thumb Code    34  stm32f4xx_rcc.o(.text)
    RCC_APB1PeriphResetCmd                   0x08003d59   Thumb Code    34  stm32f4xx_rcc.o(.text)
    RCC_APB2PeriphResetCmd                   0x08003d7b   Thumb Code    34  stm32f4xx_rcc.o(.text)
    RCC_AHB1PeriphClockLPModeCmd             0x08003d9d   Thumb Code    34  stm32f4xx_rcc.o(.text)
    RCC_AHB2PeriphClockLPModeCmd             0x08003dbf   Thumb Code    34  stm32f4xx_rcc.o(.text)
    RCC_AHB3PeriphClockLPModeCmd             0x08003de1   Thumb Code    34  stm32f4xx_rcc.o(.text)
    RCC_APB1PeriphClockLPModeCmd             0x08003e03   Thumb Code    34  stm32f4xx_rcc.o(.text)
    RCC_APB2PeriphClockLPModeCmd             0x08003e25   Thumb Code    34  stm32f4xx_rcc.o(.text)
    RCC_LSEModeConfig                        0x08003e47   Thumb Code    40  stm32f4xx_rcc.o(.text)
    RCC_ITConfig                             0x08003e6f   Thumb Code    34  stm32f4xx_rcc.o(.text)
    RCC_ClearFlag                            0x08003e91   Thumb Code    18  stm32f4xx_rcc.o(.text)
    RCC_GetITStatus                          0x08003ea3   Thumb Code    22  stm32f4xx_rcc.o(.text)
    RCC_ClearITPendingBit                    0x08003eb9   Thumb Code     8  stm32f4xx_rcc.o(.text)
    SYSCFG_DeInit                            0x08003ec5   Thumb Code    22  stm32f4xx_syscfg.o(.text)
    SYSCFG_MemoryRemapConfig                 0x08003edb   Thumb Code     6  stm32f4xx_syscfg.o(.text)
    SYSCFG_MemorySwappingBank                0x08003ee1   Thumb Code     6  stm32f4xx_syscfg.o(.text)
    SYSCFG_EXTILineConfig                    0x08003ee7   Thumb Code    66  stm32f4xx_syscfg.o(.text)
    SYSCFG_ETH_MediaInterfaceConfig          0x08003f29   Thumb Code     8  stm32f4xx_syscfg.o(.text)
    SYSCFG_CompensationCellCmd               0x08003f31   Thumb Code     6  stm32f4xx_syscfg.o(.text)
    SYSCFG_GetCompensationCellStatus         0x08003f37   Thumb Code    22  stm32f4xx_syscfg.o(.text)
    USART_DeInit                             0x08003f59   Thumb Code   206  stm32f4xx_usart.o(.text)
    USART_Init                               0x08004027   Thumb Code   204  stm32f4xx_usart.o(.text)
    USART_StructInit                         0x080040f3   Thumb Code    24  stm32f4xx_usart.o(.text)
    USART_ClockInit                          0x0800410b   Thumb Code    32  stm32f4xx_usart.o(.text)
    USART_ClockStructInit                    0x0800412b   Thumb Code    12  stm32f4xx_usart.o(.text)
    USART_Cmd                                0x08004137   Thumb Code    24  stm32f4xx_usart.o(.text)
    USART_SetPrescaler                       0x0800414f   Thumb Code    16  stm32f4xx_usart.o(.text)
    USART_OverSampling8Cmd                   0x0800415f   Thumb Code    22  stm32f4xx_usart.o(.text)
    USART_OneBitMethodCmd                    0x08004175   Thumb Code    24  stm32f4xx_usart.o(.text)
    USART_SendData                           0x0800418d   Thumb Code     8  stm32f4xx_usart.o(.text)
    USART_ReceiveData                        0x08004195   Thumb Code    10  stm32f4xx_usart.o(.text)
    USART_SetAddress                         0x0800419f   Thumb Code    18  stm32f4xx_usart.o(.text)
    USART_ReceiverWakeUpCmd                  0x080041b1   Thumb Code    24  stm32f4xx_usart.o(.text)
    USART_WakeUpConfig                       0x080041c9   Thumb Code    18  stm32f4xx_usart.o(.text)
    USART_LINBreakDetectLengthConfig         0x080041db   Thumb Code    18  stm32f4xx_usart.o(.text)
    USART_LINCmd                             0x080041ed   Thumb Code    24  stm32f4xx_usart.o(.text)
    USART_SendBreak                          0x08004205   Thumb Code    10  stm32f4xx_usart.o(.text)
    USART_HalfDuplexCmd                      0x0800420f   Thumb Code    24  stm32f4xx_usart.o(.text)
    USART_SetGuardTime                       0x08004227   Thumb Code    16  stm32f4xx_usart.o(.text)
    USART_SmartCardCmd                       0x08004237   Thumb Code    24  stm32f4xx_usart.o(.text)
    USART_SmartCardNACKCmd                   0x0800424f   Thumb Code    24  stm32f4xx_usart.o(.text)
    USART_IrDAConfig                         0x08004267   Thumb Code    18  stm32f4xx_usart.o(.text)
    USART_IrDACmd                            0x08004279   Thumb Code    24  stm32f4xx_usart.o(.text)
    USART_DMACmd                             0x08004291   Thumb Code    18  stm32f4xx_usart.o(.text)
    USART_ITConfig                           0x080042a3   Thumb Code    74  stm32f4xx_usart.o(.text)
    USART_GetFlagStatus                      0x080042ed   Thumb Code    26  stm32f4xx_usart.o(.text)
    USART_ClearFlag                          0x08004307   Thumb Code    18  stm32f4xx_usart.o(.text)
    USART_GetITStatus                        0x08004319   Thumb Code   118  stm32f4xx_usart.o(.text)
    USART_ClearITPendingBit                  0x0800438f   Thumb Code    30  stm32f4xx_usart.o(.text)
    TIM_DeInit                               0x080043ad   Thumb Code   346  stm32f4xx_tim.o(.text)
    TIM_TimeBaseInit                         0x08004507   Thumb Code   104  stm32f4xx_tim.o(.text)
    TIM_TimeBaseStructInit                   0x0800456f   Thumb Code    18  stm32f4xx_tim.o(.text)
    TIM_PrescalerConfig                      0x08004581   Thumb Code     6  stm32f4xx_tim.o(.text)
    TIM_CounterModeConfig                    0x08004587   Thumb Code    18  stm32f4xx_tim.o(.text)
    TIM_SetCounter                           0x08004599   Thumb Code     4  stm32f4xx_tim.o(.text)
    TIM_SetAutoreload                        0x0800459d   Thumb Code     4  stm32f4xx_tim.o(.text)
    TIM_GetCounter                           0x080045a1   Thumb Code     6  stm32f4xx_tim.o(.text)
    TIM_GetPrescaler                         0x080045a7   Thumb Code     6  stm32f4xx_tim.o(.text)
    TIM_UpdateDisableConfig                  0x080045ad   Thumb Code    24  stm32f4xx_tim.o(.text)
    TIM_UpdateRequestConfig                  0x080045c5   Thumb Code    24  stm32f4xx_tim.o(.text)
    TIM_ARRPreloadConfig                     0x080045dd   Thumb Code    24  stm32f4xx_tim.o(.text)
    TIM_SelectOnePulseMode                   0x080045f5   Thumb Code    18  stm32f4xx_tim.o(.text)
    TIM_SetClockDivision                     0x08004607   Thumb Code    18  stm32f4xx_tim.o(.text)
    TIM_Cmd                                  0x08004619   Thumb Code    24  stm32f4xx_tim.o(.text)
    TIM_OC1Init                              0x08004631   Thumb Code   114  stm32f4xx_tim.o(.text)
    TIM_OC2Init                              0x080046a3   Thumb Code   154  stm32f4xx_tim.o(.text)
    TIM_OC3Init                              0x0800473d   Thumb Code   204  stm32f4xx_tim.o(.text)
    TIM_OC4Init                              0x08004809   Thumb Code   112  stm32f4xx_tim.o(.text)
    TIM_OCStructInit                         0x08004879   Thumb Code    20  stm32f4xx_tim.o(.text)
    TIM_SelectOCxM                           0x0800488d   Thumb Code    86  stm32f4xx_tim.o(.text)
    TIM_SetCompare1                          0x080048e3   Thumb Code     4  stm32f4xx_tim.o(.text)
    TIM_SetCompare2                          0x080048e7   Thumb Code     4  stm32f4xx_tim.o(.text)
    TIM_SetCompare3                          0x080048eb   Thumb Code     4  stm32f4xx_tim.o(.text)
    TIM_SetCompare4                          0x080048ef   Thumb Code     4  stm32f4xx_tim.o(.text)
    TIM_ForcedOC1Config                      0x080048f3   Thumb Code    18  stm32f4xx_tim.o(.text)
    TIM_ForcedOC2Config                      0x08004905   Thumb Code    26  stm32f4xx_tim.o(.text)
    TIM_ForcedOC3Config                      0x0800491f   Thumb Code    18  stm32f4xx_tim.o(.text)
    TIM_ForcedOC4Config                      0x08004931   Thumb Code    26  stm32f4xx_tim.o(.text)
    TIM_OC1PreloadConfig                     0x0800494b   Thumb Code    18  stm32f4xx_tim.o(.text)
    TIM_OC2PreloadConfig                     0x0800495d   Thumb Code    26  stm32f4xx_tim.o(.text)
    TIM_OC3PreloadConfig                     0x08004977   Thumb Code    18  stm32f4xx_tim.o(.text)
    TIM_OC4PreloadConfig                     0x08004989   Thumb Code    26  stm32f4xx_tim.o(.text)
    TIM_OC1FastConfig                        0x080049a3   Thumb Code    18  stm32f4xx_tim.o(.text)
    TIM_OC2FastConfig                        0x080049b5   Thumb Code    26  stm32f4xx_tim.o(.text)
    TIM_OC3FastConfig                        0x080049cf   Thumb Code    18  stm32f4xx_tim.o(.text)
    TIM_OC4FastConfig                        0x080049e1   Thumb Code    26  stm32f4xx_tim.o(.text)
    TIM_ClearOC1Ref                          0x080049fb   Thumb Code    18  stm32f4xx_tim.o(.text)
    TIM_ClearOC2Ref                          0x08004a0d   Thumb Code    24  stm32f4xx_tim.o(.text)
    TIM_ClearOC3Ref                          0x08004a25   Thumb Code    18  stm32f4xx_tim.o(.text)
    TIM_ClearOC4Ref                          0x08004a37   Thumb Code    24  stm32f4xx_tim.o(.text)
    TIM_OC1PolarityConfig                    0x08004a4f   Thumb Code    18  stm32f4xx_tim.o(.text)
    TIM_OC1NPolarityConfig                   0x08004a61   Thumb Code    18  stm32f4xx_tim.o(.text)
    TIM_OC2PolarityConfig                    0x08004a73   Thumb Code    26  stm32f4xx_tim.o(.text)
    TIM_OC2NPolarityConfig                   0x08004a8d   Thumb Code    26  stm32f4xx_tim.o(.text)
    TIM_OC3PolarityConfig                    0x08004aa7   Thumb Code    26  stm32f4xx_tim.o(.text)
    TIM_OC3NPolarityConfig                   0x08004ac1   Thumb Code    26  stm32f4xx_tim.o(.text)
    TIM_OC4PolarityConfig                    0x08004adb   Thumb Code    26  stm32f4xx_tim.o(.text)
    TIM_CCxCmd                               0x08004af5   Thumb Code    30  stm32f4xx_tim.o(.text)
    TIM_CCxNCmd                              0x08004b13   Thumb Code    30  stm32f4xx_tim.o(.text)
    TIM_SetIC4Prescaler                      0x08004b31   Thumb Code    26  stm32f4xx_tim.o(.text)
    TIM_SetIC3Prescaler                      0x08004b9b   Thumb Code    18  stm32f4xx_tim.o(.text)
    TIM_SetIC2Prescaler                      0x08004bf5   Thumb Code    26  stm32f4xx_tim.o(.text)
    TIM_SetIC1Prescaler                      0x08004c69   Thumb Code    18  stm32f4xx_tim.o(.text)
    TIM_ICInit                               0x08004cb5   Thumb Code   110  stm32f4xx_tim.o(.text)
    TIM_ICStructInit                         0x08004d23   Thumb Code    18  stm32f4xx_tim.o(.text)
    TIM_PWMIConfig                           0x08004d35   Thumb Code   124  stm32f4xx_tim.o(.text)
    TIM_GetCapture1                          0x08004db1   Thumb Code     6  stm32f4xx_tim.o(.text)
    TIM_GetCapture2                          0x08004db7   Thumb Code     6  stm32f4xx_tim.o(.text)
    TIM_GetCapture3                          0x08004dbd   Thumb Code     6  stm32f4xx_tim.o(.text)
    TIM_GetCapture4                          0x08004dc3   Thumb Code     6  stm32f4xx_tim.o(.text)
    TIM_BDTRConfig                           0x08004dc9   Thumb Code    32  stm32f4xx_tim.o(.text)
    TIM_BDTRStructInit                       0x08004de9   Thumb Code    18  stm32f4xx_tim.o(.text)
    TIM_CtrlPWMOutputs                       0x08004dfb   Thumb Code    30  stm32f4xx_tim.o(.text)
    TIM_SelectCOM                            0x08004e19   Thumb Code    24  stm32f4xx_tim.o(.text)
    TIM_CCPreloadControl                     0x08004e31   Thumb Code    24  stm32f4xx_tim.o(.text)
    TIM_ITConfig                             0x08004e49   Thumb Code    18  stm32f4xx_tim.o(.text)
    TIM_GenerateEvent                        0x08004e5b   Thumb Code     4  stm32f4xx_tim.o(.text)
    TIM_GetFlagStatus                        0x08004e5f   Thumb Code    18  stm32f4xx_tim.o(.text)
    TIM_ClearFlag                            0x08004e71   Thumb Code     6  stm32f4xx_tim.o(.text)
    TIM_GetITStatus                          0x08004e77   Thumb Code    34  stm32f4xx_tim.o(.text)
    TIM_ClearITPendingBit                    0x08004e99   Thumb Code     6  stm32f4xx_tim.o(.text)
    TIM_DMAConfig                            0x08004e9f   Thumb Code    10  stm32f4xx_tim.o(.text)
    TIM_DMACmd                               0x08004ea9   Thumb Code    18  stm32f4xx_tim.o(.text)
    TIM_SelectCCDMA                          0x08004ebb   Thumb Code    24  stm32f4xx_tim.o(.text)
    TIM_InternalClockConfig                  0x08004ed3   Thumb Code    12  stm32f4xx_tim.o(.text)
    TIM_SelectInputTrigger                   0x08004edf   Thumb Code    18  stm32f4xx_tim.o(.text)
    TIM_ITRxExternalClockConfig              0x08004ef1   Thumb Code    24  stm32f4xx_tim.o(.text)
    TIM_TIxExternalClockConfig               0x08004f09   Thumb Code    62  stm32f4xx_tim.o(.text)
    TIM_ETRConfig                            0x08004f47   Thumb Code    28  stm32f4xx_tim.o(.text)
    TIM_ETRClockMode1Config                  0x08004f63   Thumb Code    54  stm32f4xx_tim.o(.text)
    TIM_ETRClockMode2Config                  0x08004f99   Thumb Code    32  stm32f4xx_tim.o(.text)
    TIM_SelectOutputTrigger                  0x08004fb9   Thumb Code    18  stm32f4xx_tim.o(.text)
    TIM_SelectSlaveMode                      0x08004fcb   Thumb Code    18  stm32f4xx_tim.o(.text)
    TIM_SelectMasterSlaveMode                0x08004fdd   Thumb Code    18  stm32f4xx_tim.o(.text)
    TIM_EncoderInterfaceConfig               0x08004fef   Thumb Code    66  stm32f4xx_tim.o(.text)
    TIM_SelectHallSensor                     0x08005031   Thumb Code    24  stm32f4xx_tim.o(.text)
    TIM_RemapConfig                          0x08005049   Thumb Code     6  stm32f4xx_tim.o(.text)
    FLASH_SetLatency                         0x08005051   Thumb Code     6  stm32f4xx_flash.o(.text)
    FLASH_PrefetchBufferCmd                  0x08005057   Thumb Code    30  stm32f4xx_flash.o(.text)
    FLASH_InstructionCacheCmd                0x08005075   Thumb Code    30  stm32f4xx_flash.o(.text)
    FLASH_DataCacheCmd                       0x08005093   Thumb Code    30  stm32f4xx_flash.o(.text)
    FLASH_InstructionCacheReset              0x080050b1   Thumb Code    14  stm32f4xx_flash.o(.text)
    FLASH_DataCacheReset                     0x080050bf   Thumb Code    14  stm32f4xx_flash.o(.text)
    FLASH_Unlock                             0x080050cd   Thumb Code    26  stm32f4xx_flash.o(.text)
    FLASH_Lock                               0x080050e7   Thumb Code    18  stm32f4xx_flash.o(.text)
    FLASH_GetStatus                          0x080050f9   Thumb Code    90  stm32f4xx_flash.o(.text)
    FLASH_WaitForLastOperation               0x08005153   Thumb Code    34  stm32f4xx_flash.o(.text)
    FLASH_EraseSector                        0x08005175   Thumb Code   140  stm32f4xx_flash.o(.text)
    FLASH_EraseAllSectors                    0x08005201   Thumb Code   112  stm32f4xx_flash.o(.text)
    FLASH_EraseAllBank1Sectors               0x08005271   Thumb Code   112  stm32f4xx_flash.o(.text)
    FLASH_EraseAllBank2Sectors               0x080052e1   Thumb Code   112  stm32f4xx_flash.o(.text)
    FLASH_ProgramDoubleWord                  0x08005351   Thumb Code    86  stm32f4xx_flash.o(.text)
    FLASH_ProgramWord                        0x080053a7   Thumb Code    82  stm32f4xx_flash.o(.text)
    FLASH_ProgramHalfWord                    0x080053f9   Thumb Code    96  stm32f4xx_flash.o(.text)
    FLASH_ProgramByte                        0x08005459   Thumb Code    70  stm32f4xx_flash.o(.text)
    FLASH_OB_Unlock                          0x0800549f   Thumb Code    26  stm32f4xx_flash.o(.text)
    FLASH_OB_Lock                            0x080054b9   Thumb Code    18  stm32f4xx_flash.o(.text)
    FLASH_OB_WRPConfig                       0x080054cb   Thumb Code    54  stm32f4xx_flash.o(.text)
    FLASH_OB_WRP1Config                      0x08005501   Thumb Code    54  stm32f4xx_flash.o(.text)
    FLASH_OB_PCROPSelectionConfig            0x08005537   Thumb Code    24  stm32f4xx_flash.o(.text)
    FLASH_OB_PCROPConfig                     0x0800554f   Thumb Code    54  stm32f4xx_flash.o(.text)
    FLASH_OB_PCROP1Config                    0x08005585   Thumb Code    54  stm32f4xx_flash.o(.text)
    FLASH_OB_RDPConfig                       0x080055bb   Thumb Code    24  stm32f4xx_flash.o(.text)
    FLASH_OB_UserConfig                      0x080055d3   Thumb Code    46  stm32f4xx_flash.o(.text)
    FLASH_OB_BootConfig                      0x08005601   Thumb Code    26  stm32f4xx_flash.o(.text)
    FLASH_OB_BORConfig                       0x0800561b   Thumb Code    26  stm32f4xx_flash.o(.text)
    FLASH_OB_Launch                          0x08005635   Thumb Code    30  stm32f4xx_flash.o(.text)
    FLASH_OB_GetUser                         0x08005653   Thumb Code    12  stm32f4xx_flash.o(.text)
    FLASH_OB_GetWRP                          0x0800565f   Thumb Code     8  stm32f4xx_flash.o(.text)
    FLASH_OB_GetWRP1                         0x08005667   Thumb Code     8  stm32f4xx_flash.o(.text)
    FLASH_OB_GetPCROP                        0x0800566f   Thumb Code     8  stm32f4xx_flash.o(.text)
    FLASH_OB_GetPCROP1                       0x08005677   Thumb Code     8  stm32f4xx_flash.o(.text)
    FLASH_OB_GetRDP                          0x0800567f   Thumb Code    20  stm32f4xx_flash.o(.text)
    FLASH_OB_GetBOR                          0x08005693   Thumb Code    12  stm32f4xx_flash.o(.text)
    FLASH_ITConfig                           0x0800569f   Thumb Code    26  stm32f4xx_flash.o(.text)
    FLASH_GetFlagStatus                      0x080056b9   Thumb Code    22  stm32f4xx_flash.o(.text)
    FLASH_ClearFlag                          0x080056cf   Thumb Code     8  stm32f4xx_flash.o(.text)
    EXTI_DeInit                              0x080056e5   Thumb Code    28  stm32f4xx_exti.o(.text)
    EXTI_Init                                0x08005701   Thumb Code   142  stm32f4xx_exti.o(.text)
    EXTI_StructInit                          0x0800578f   Thumb Code    16  stm32f4xx_exti.o(.text)
    EXTI_GenerateSWInterrupt                 0x0800579f   Thumb Code    16  stm32f4xx_exti.o(.text)
    EXTI_GetFlagStatus                       0x080057af   Thumb Code    22  stm32f4xx_exti.o(.text)
    EXTI_ClearFlag                           0x080057c5   Thumb Code     8  stm32f4xx_exti.o(.text)
    EXTI_GetITStatus                         0x080057cd   Thumb Code    22  stm32f4xx_exti.o(.text)
    EXTI_ClearITPendingBit                   0x080057e3   Thumb Code     8  stm32f4xx_exti.o(.text)
    SPI_I2S_DeInit                           0x080057f5   Thumb Code   152  stm32f4xx_spi.o(.text)
    SPI_Init                                 0x0800588d   Thumb Code    60  stm32f4xx_spi.o(.text)
    I2S_Init                                 0x080058c9   Thumb Code   396  stm32f4xx_spi.o(.text)
    SPI_StructInit                           0x08005a55   Thumb Code    24  stm32f4xx_spi.o(.text)
    I2S_StructInit                           0x08005a6d   Thumb Code    20  stm32f4xx_spi.o(.text)
    SPI_Cmd                                  0x08005a81   Thumb Code    24  stm32f4xx_spi.o(.text)
    I2S_Cmd                                  0x08005a99   Thumb Code    24  stm32f4xx_spi.o(.text)
    SPI_DataSizeConfig                       0x08005ab1   Thumb Code    18  stm32f4xx_spi.o(.text)
    SPI_BiDirectionalLineConfig              0x08005ac3   Thumb Code    28  stm32f4xx_spi.o(.text)
    SPI_NSSInternalSoftwareConfig            0x08005adf   Thumb Code    30  stm32f4xx_spi.o(.text)
    SPI_SSOutputCmd                          0x08005afd   Thumb Code    24  stm32f4xx_spi.o(.text)
    SPI_TIModeCmd                            0x08005b15   Thumb Code    24  stm32f4xx_spi.o(.text)
    I2S_FullDuplexConfig                     0x08005b2d   Thumb Code    80  stm32f4xx_spi.o(.text)
    SPI_I2S_ReceiveData                      0x08005b7d   Thumb Code     6  stm32f4xx_spi.o(.text)
    SPI_I2S_SendData                         0x08005b83   Thumb Code     4  stm32f4xx_spi.o(.text)
    SPI_CalculateCRC                         0x08005b87   Thumb Code    24  stm32f4xx_spi.o(.text)
    SPI_TransmitCRC                          0x08005b9f   Thumb Code    10  stm32f4xx_spi.o(.text)
    SPI_GetCRC                               0x08005ba9   Thumb Code    16  stm32f4xx_spi.o(.text)
    SPI_GetCRCPolynomial                     0x08005bb9   Thumb Code     6  stm32f4xx_spi.o(.text)
    SPI_I2S_DMACmd                           0x08005bbf   Thumb Code    18  stm32f4xx_spi.o(.text)
    SPI_I2S_ITConfig                         0x08005bd1   Thumb Code    68  stm32f4xx_spi.o(.text)
    SPI_I2S_GetFlagStatus                    0x08005c15   Thumb Code    18  stm32f4xx_spi.o(.text)
    SPI_I2S_ClearFlag                        0x08005c27   Thumb Code     6  stm32f4xx_spi.o(.text)
    SPI_I2S_GetITStatus                      0x08005c2d   Thumb Code    52  stm32f4xx_spi.o(.text)
    SPI_I2S_ClearITPendingBit                0x08005c61   Thumb Code    20  stm32f4xx_spi.o(.text)
    DMA_DeInit                               0x08005c75   Thumb Code   324  stm32f4xx_dma.o(.text)
    DMA_Init                                 0x08005db9   Thumb Code    82  stm32f4xx_dma.o(.text)
    DMA_StructInit                           0x08005e0b   Thumb Code    34  stm32f4xx_dma.o(.text)
    DMA_Cmd                                  0x08005e2d   Thumb Code    22  stm32f4xx_dma.o(.text)
    DMA_PeriphIncOffsetSizeConfig            0x08005e43   Thumb Code    22  stm32f4xx_dma.o(.text)
    DMA_FlowControllerConfig                 0x08005e59   Thumb Code    22  stm32f4xx_dma.o(.text)
    DMA_SetCurrDataCounter                   0x08005e6f   Thumb Code     4  stm32f4xx_dma.o(.text)
    DMA_GetCurrDataCounter                   0x08005e73   Thumb Code     8  stm32f4xx_dma.o(.text)
    DMA_DoubleBufferModeConfig               0x08005e7b   Thumb Code    24  stm32f4xx_dma.o(.text)
    DMA_DoubleBufferModeCmd                  0x08005e93   Thumb Code    22  stm32f4xx_dma.o(.text)
    DMA_MemoryTargetConfig                   0x08005ea9   Thumb Code    10  stm32f4xx_dma.o(.text)
    DMA_GetCurrentMemoryTarget               0x08005eb3   Thumb Code    20  stm32f4xx_dma.o(.text)
    DMA_GetCmdStatus                         0x08005ec7   Thumb Code    20  stm32f4xx_dma.o(.text)
    DMA_GetFIFOStatus                        0x08005edb   Thumb Code    12  stm32f4xx_dma.o(.text)
    DMA_GetFlagStatus                        0x08005ee7   Thumb Code    56  stm32f4xx_dma.o(.text)
    DMA_ClearFlag                            0x08005f1f   Thumb Code    40  stm32f4xx_dma.o(.text)
    DMA_ITConfig                             0x08005f47   Thumb Code    58  stm32f4xx_dma.o(.text)
    DMA_GetITStatus                          0x08005f81   Thumb Code    84  stm32f4xx_dma.o(.text)
    DMA_ClearITPendingBit                    0x08005fd5   Thumb Code    40  stm32f4xx_dma.o(.text)
    IWDG_WriteAccessCmd                      0x0800601d   Thumb Code     6  stm32f4xx_iwdg.o(.text)
    IWDG_SetPrescaler                        0x08006023   Thumb Code     6  stm32f4xx_iwdg.o(.text)
    IWDG_SetReload                           0x08006029   Thumb Code     6  stm32f4xx_iwdg.o(.text)
    IWDG_ReloadCounter                       0x0800602f   Thumb Code    10  stm32f4xx_iwdg.o(.text)
    IWDG_Enable                              0x08006039   Thumb Code    10  stm32f4xx_iwdg.o(.text)
    IWDG_GetFlagStatus                       0x08006043   Thumb Code    20  stm32f4xx_iwdg.o(.text)
    OS_TaskStatStkChk                        0x0800605d   Thumb Code    54  os_core.o(.text)
    OS_TaskStat                              0x08006093   Thumb Code   116  os_core.o(.text)
    OS_TaskIdle                              0x0800613b   Thumb Code    34  os_core.o(.text)
    OS_MemClr                                0x08006191   Thumb Code    18  os_core.o(.text)
    OSInit                                   0x080062af   Thumb Code    48  os_core.o(.text)
    OSIntEnter                               0x080062df   Thumb Code    28  os_core.o(.text)
    OSIntExit                                0x08006315   Thumb Code   112  os_core.o(.text)
    OSSchedLock                              0x08006385   Thumb Code    50  os_core.o(.text)
    OS_Sched                                 0x080063b7   Thumb Code    88  os_core.o(.text)
    OSSchedUnlock                            0x0800640f   Thumb Code   238  os_core.o(.text)
    OSStart                                  0x080064fd   Thumb Code    48  os_core.o(.text)
    OSStatInit                               0x0800652d   Thumb Code    62  os_core.o(.text)
    OSTimeTick                               0x0800656b   Thumb Code   210  os_core.o(.text)
    OSVersion                                0x0800663d   Thumb Code     6  os_core.o(.text)
    OS_Dummy                                 0x08006643   Thumb Code     2  os_core.o(.text)
    OS_EventTaskRemove                       0x08006645   Thumb Code    42  os_core.o(.text)
    OS_EventTaskRdy                          0x0800666f   Thumb Code   114  os_core.o(.text)
    OS_EventTaskWait                         0x080066e1   Thumb Code   112  os_core.o(.text)
    OS_EventWaitListInit                     0x08006751   Thumb Code    28  os_core.o(.text)
    OS_MemCopy                               0x0800676d   Thumb Code    20  os_core.o(.text)
    OS_StrLen                                0x08006781   Thumb Code    20  os_core.o(.text)
    OS_TCBInit                               0x08006795   Thumb Code   280  os_core.o(.text)
    OSFlagAccept                             0x080068f1   Thumb Code   252  os_flag.o(.text)
    OSFlagCreate                             0x080069ed   Thumb Code    86  os_flag.o(.text)
    OS_FlagUnlink                            0x08006a43   Thumb Code    36  os_flag.o(.text)
    OSFlagDel                                0x08006ab9   Thumb Code   214  os_flag.o(.text)
    OSFlagNameGet                            0x08006b8f   Thumb Code    80  os_flag.o(.text)
    OSFlagNameSet                            0x08006bdf   Thumb Code    66  os_flag.o(.text)
    OSFlagPend                               0x08006cb9   Thumb Code   614  os_flag.o(.text)
    OSFlagPendGetFlagsRdy                    0x08006f1f   Thumb Code    26  os_flag.o(.text)
    OSFlagPost                               0x08006f39   Thumb Code   312  os_flag.o(.text)
    OSFlagQuery                              0x08007071   Thumb Code    48  os_flag.o(.text)
    OS_FlagInit                              0x080070a1   Thumb Code    78  os_flag.o(.text)
    OSMboxAccept                             0x080070fd   Thumb Code    38  os_mbox.o(.text)
    OSMboxCreate                             0x08007123   Thumb Code    68  os_mbox.o(.text)
    OSMboxDel                                0x08007167   Thumb Code   200  os_mbox.o(.text)
    OSMboxPend                               0x0800722f   Thumb Code   246  os_mbox.o(.text)
    OSMboxPendAbort                          0x08007325   Thumb Code   128  os_mbox.o(.text)
    OSMboxPost                               0x080073a5   Thumb Code    80  os_mbox.o(.text)
    OSMboxPostOpt                            0x080073f5   Thumb Code   120  os_mbox.o(.text)
    OSMboxQuery                              0x0800746d   Thumb Code    76  os_mbox.o(.text)
    OSQAccept                                0x080074c9   Thumb Code    88  os_q.o(.text)
    OSQCreate                                0x08007521   Thumb Code   140  os_q.o(.text)
    OSQDel                                   0x080075ad   Thumb Code   236  os_q.o(.text)
    OSQFlush                                 0x08007699   Thumb Code    36  os_q.o(.text)
    OSQPend                                  0x080076bd   Thumb Code   272  os_q.o(.text)
    OSQPendAbort                             0x080077cd   Thumb Code   128  os_q.o(.text)
    OSQPost                                  0x0800784d   Thumb Code   114  os_q.o(.text)
    OSQPostFront                             0x080078bf   Thumb Code   136  os_q.o(.text)
    OSQPostOpt                               0x08007947   Thumb Code   182  os_q.o(.text)
    OSQQuery                                 0x080079fd   Thumb Code    98  os_q.o(.text)
    OS_QInit                                 0x08007a5f   Thumb Code    72  os_q.o(.text)
    OSSemAccept                              0x08007ab1   Thumb Code    42  os_sem.o(.text)
    OSSemCreate                              0x08007adb   Thumb Code    68  os_sem.o(.text)
    OSSemDel                                 0x08007b1f   Thumb Code   200  os_sem.o(.text)
    OSSemPend                                0x08007be7   Thumb Code   222  os_sem.o(.text)
    OSSemPendAbort                           0x08007cc5   Thumb Code   128  os_sem.o(.text)
    OSSemPost                                0x08007d45   Thumb Code    88  os_sem.o(.text)
    OSSemQuery                               0x08007d9d   Thumb Code    76  os_sem.o(.text)
    OSSemSet                                 0x08007de9   Thumb Code    66  os_sem.o(.text)
    OSTaskChangePrio                         0x08007e3d   Thumb Code   308  os_task.o(.text)
    OSTaskCreate                             0x08007f71   Thumb Code   148  os_task.o(.text)
    OS_TaskStkClr                            0x08008005   Thumb Code    26  os_task.o(.text)
    OSTaskCreateExt                          0x0800801f   Thumb Code   170  os_task.o(.text)
    OSTaskDel                                0x080080c9   Thumb Code   294  os_task.o(.text)
    OSTaskDelReq                             0x080081ef   Thumb Code   144  os_task.o(.text)
    OSTaskNameGet                            0x0800827f   Thumb Code   114  os_task.o(.text)
    OSTaskNameSet                            0x080082f1   Thumb Code    98  os_task.o(.text)
    OSTaskResume                             0x08008353   Thumb Code   154  os_task.o(.text)
    OSTaskStkChk                             0x080083ed   Thumb Code   132  os_task.o(.text)
    OSTaskSuspend                            0x08008471   Thumb Code   152  os_task.o(.text)
    OSTaskQuery                              0x08008509   Thumb Code    82  os_task.o(.text)
    OSTaskRegGet                             0x0800855b   Thumb Code    60  os_task.o(.text)
    OSTaskRegSet                             0x08008597   Thumb Code    62  os_task.o(.text)
    OS_TaskReturn                            0x080085d5   Thumb Code    18  os_task.o(.text)
    OSTimeDly                                0x08008601   Thumb Code   100  os_time.o(.text)
    OSTimeDlyHMSM                            0x08008665   Thumb Code    86  os_time.o(.text)
    OSTimeDlyResume                          0x080086bb   Thumb Code   168  os_time.o(.text)
    OSTimeGet                                0x08008763   Thumb Code    24  os_time.o(.text)
    OSTimeSet                                0x0800877b   Thumb Code    24  os_time.o(.text)
    OSTmrCreate                              0x080087e3   Thumb Code    96  os_tmr.o(.text)
    OSTmrDel                                 0x080088bb   Thumb Code   124  os_tmr.o(.text)
    OSTmrNameGet                             0x08008937   Thumb Code   114  os_tmr.o(.text)
    OSTmrRemainGet                           0x080089a9   Thumb Code   164  os_tmr.o(.text)
    OSTmrStateGet                            0x08008a4d   Thumb Code    86  os_tmr.o(.text)
    OSTmrStart                               0x08008b07   Thumb Code   128  os_tmr.o(.text)
    OSTmrStop                                0x08008b87   Thumb Code   210  os_tmr.o(.text)
    OSTmrSignal                              0x08008c59   Thumb Code    16  os_tmr.o(.text)
    OSTmr_Init                               0x08008d0d   Thumb Code   152  os_tmr.o(.text)
    OS_CPU_SR_Save                           0x08008de5   Thumb Code     0  os_cpu_a.o(.text)
    OS_CPU_SR_Restore                        0x08008ded   Thumb Code     0  os_cpu_a.o(.text)
    OSStartHighRdy                           0x08008df3   Thumb Code     0  os_cpu_a.o(.text)
    OSCtxSw                                  0x08008e17   Thumb Code     0  os_cpu_a.o(.text)
    OSIntCtxSw                               0x08008e25   Thumb Code     0  os_cpu_a.o(.text)
    PendSV_Handler                           0x08008e35   Thumb Code     0  os_cpu_a.o(.text)
    OSInitHookBegin                          0x08008ead   Thumb Code     8  os_cpu_c.o(.text)
    OSInitHookEnd                            0x08008eb5   Thumb Code     2  os_cpu_c.o(.text)
    OSTaskCreateHook                         0x08008eb7   Thumb Code     2  os_cpu_c.o(.text)
    OSTaskDelHook                            0x08008eb9   Thumb Code     2  os_cpu_c.o(.text)
    OSTaskIdleHook                           0x08008ebb   Thumb Code     2  os_cpu_c.o(.text)
    OSTaskStatHook                           0x08008ebd   Thumb Code     2  os_cpu_c.o(.text)
    OSTaskStkInit                            0x08008ebf   Thumb Code   426  os_cpu_c.o(.text)
    OSTaskSwHook                             0x08009069   Thumb Code     2  os_cpu_c.o(.text)
    OSTCBInitHook                            0x0800906b   Thumb Code     2  os_cpu_c.o(.text)
    OSTimeTickHook                           0x0800906d   Thumb Code    30  os_cpu_c.o(.text)
    OSTaskReturnHook                         0x0800908b   Thumb Code     2  os_cpu_c.o(.text)
    Delay_us_IMU1                            0x08009095   Thumb Code    44  iic1.o(.text)
    IIC_IMU1_Init                            0x080090c1   Thumb Code    60  iic1.o(.text)
    IIC_IMU1_Start                           0x080090fd   Thumb Code    68  iic1.o(.text)
    IIC_IMU1_Stop                            0x08009141   Thumb Code    62  iic1.o(.text)
    IIC_IMU1_Wait_Ack                        0x0800917f   Thumb Code    88  iic1.o(.text)
    IIC_IMU1_Ack                             0x080091d7   Thumb Code    66  iic1.o(.text)
    IIC_IMU1_NAck                            0x08009219   Thumb Code    66  iic1.o(.text)
    IIC_IMU1_Send_Byte                       0x0800925b   Thumb Code    90  iic1.o(.text)
    IIC_IMU1_Read_Byte                       0x080092b5   Thumb Code    94  iic1.o(.text)
    I2C_IMU1_ReadOneByte                     0x08009313   Thumb Code    70  iic1.o(.text)
    IIC_IMU1readBytes                        0x08009359   Thumb Code   100  iic1.o(.text)
    IIC_IMU1writeBytes                       0x080093bd   Thumb Code    70  iic1.o(.text)
    IIC_IMU1readByte                         0x08009403   Thumb Code    22  iic1.o(.text)
    IIC_IMU1writeByte                        0x08009419   Thumb Code    20  iic1.o(.text)
    IIC_IMU1writeBitsm                       0x0800942d   Thumb Code   128  iic1.o(.text)
    IIC_IMU1writeBitm                        0x080094ad   Thumb Code    64  iic1.o(.text)
    I2c_Soft_delay                           0x080094ed   Thumb Code    42  iic_soft.o(.text)
    I2c_Soft_Init                            0x08009517   Thumb Code    46  iic_soft.o(.text)
    I2c_Soft_Start                           0x08009545   Thumb Code    86  iic_soft.o(.text)
    I2c_Soft_Stop                            0x0800959b   Thumb Code    52  iic_soft.o(.text)
    I2c_Soft_Ask                             0x080095cf   Thumb Code    52  iic_soft.o(.text)
    I2c_Soft_NoAsk                           0x08009603   Thumb Code    52  iic_soft.o(.text)
    I2c_Soft_WaitAsk                         0x08009637   Thumb Code    88  iic_soft.o(.text)
    I2c_Soft_SendByte                        0x0800968f   Thumb Code    84  iic_soft.o(.text)
    I2c_Soft_ReadByte                        0x080096e3   Thumb Code    96  iic_soft.o(.text)
    IIC_Write_1Byte                          0x08009743   Thumb Code    62  iic_soft.o(.text)
    IIC_Read_1Byte                           0x08009781   Thumb Code    80  iic_soft.o(.text)
    IIC_Write_nByte                          0x080097d1   Thumb Code    78  iic_soft.o(.text)
    IIC_Read_nByte                           0x0800981f   Thumb Code   108  iic_soft.o(.text)
    LEDRGB                                   0x08009895   Thumb Code    88  led_fc.o(.text)
    LEDRGB_COLOR                             0x080098ed   Thumb Code   178  led_fc.o(.text)
    LED_Init                                 0x0800999f   Thumb Code   160  led_fc.o(.text)
    LEDRGB_STATE                             0x08009a3f   Thumb Code  1294  led_fc.o(.text)
    STMFLASH_ReadWord                        0x08009f69   Thumb Code     6  flash.o(.text)
    STMFLASH_GetFlashSector                  0x08009f6f   Thumb Code   116  flash.o(.text)
    STMFLASH_Write                           0x08009fe3   Thumb Code   146  flash.o(.text)
    STMFLASH_Read                            0x0800a075   Thumb Code    32  flash.o(.text)
    READ_PARM                                0x0800a095   Thumb Code  2076  flash.o(.text)
    WRITE_PARM                               0x0800a8b1   Thumb Code  1484  flash.o(.text)
    SPI1_ReadWriteByte                       0x0800ae8d   Thumb Code    50  flash_w25.o(.text)
    W25QXX_ReadID                            0x0800aebf   Thumb Code    64  flash_w25.o(.text)
    SPI1_SetSpeed                            0x0800aeff   Thumb Code    36  flash_w25.o(.text)
    SPI1_Init                                0x0800af23   Thumb Code   188  flash_w25.o(.text)
    W25QXX_Init                              0x0800afdf   Thumb Code    74  flash_w25.o(.text)
    W25QXX_ReadSR                            0x0800b029   Thumb Code    36  flash_w25.o(.text)
    W25QXX_Write_SR                          0x0800b04d   Thumb Code    32  flash_w25.o(.text)
    W25QXX_Write_Enable                      0x0800b06d   Thumb Code    24  flash_w25.o(.text)
    W25QXX_Write_Disable                     0x0800b085   Thumb Code    24  flash_w25.o(.text)
    W25QXX_Read                              0x0800b09d   Thumb Code    74  flash_w25.o(.text)
    W25QXX_Wait_Busy                         0x0800b0e7   Thumb Code    18  flash_w25.o(.text)
    W25QXX_Write_Page                        0x0800b0f9   Thumb Code    80  flash_w25.o(.text)
    W25QXX_Write_NoCheck                     0x0800b149   Thumb Code    70  flash_w25.o(.text)
    W25QXX_Erase_Sector                      0x0800b18f   Thumb Code    62  flash_w25.o(.text)
    W25QXX_Write                             0x0800b1cd   Thumb Code   206  flash_w25.o(.text)
    W25QXX_Erase_Chip                        0x0800b29b   Thumb Code    36  flash_w25.o(.text)
    W25QXX_PowerDown                         0x0800b2bf   Thumb Code    30  flash_w25.o(.text)
    W25QXX_WAKEUP                            0x0800b2dd   Thumb Code    30  flash_w25.o(.text)
    SysTick_Configuration                    0x0800b305   Thumb Code    98  time.o(.text)
    micros                                   0x0800b367   Thumb Code     8  time.o(.text)
    GetSysTime_us                            0x0800b36f   Thumb Code     8  time.o(.text)
    Delay_us                                 0x0800b377   Thumb Code    12  time.o(.text)
    Delay_ms                                 0x0800b383   Thumb Code    24  time.o(.text)
    Get_Cycle_T                              0x0800b39b   Thumb Code   118  time.o(.text)
    Cycle_Time_Init                          0x0800b411   Thumb Code    22  time.o(.text)
    Initial_Timer_SYS                        0x0800b427   Thumb Code    70  time.o(.text)
    TIM3_Int_Init                            0x0800b46d   Thumb Code    88  time.o(.text)
    TIM7_IRQHandler                          0x0800b4c5   Thumb Code    42  time.o(.text)
    TIM7_Int_Init                            0x0800b4ef   Thumb Code    88  time.o(.text)
    MYDMA_Config                             0x0800b56d   Thumb Code   184  dma.o(.text)
    MYDMA_Enable                             0x0800b625   Thumb Code    44  dma.o(.text)
    IWDG_Init                                0x0800b655   Thumb Code    36  watch_dog.o(.text)
    IWDG_Feed                                0x0800b679   Thumb Code     8  watch_dog.o(.text)
    NMEA_Comma_Pos                           0x0800b681   Thumb Code    50  gps.o(.text)
    NMEA_Pow                                 0x0800b6b3   Thumb Code    22  gps.o(.text)
    NMEA_Str2num                             0x0800b6c9   Thumb Code   234  gps.o(.text)
    NMEA_Str2float                           0x0800b7b3   Thumb Code   258  gps.o(.text)
    NMEA_GPGSV_Analysis                      0x0800b8b5   Thumb Code   290  gps.o(.text)
    NMEA_GPGGA_Analysis                      0x0800b9d7   Thumb Code    94  gps.o(.text)
    NMEA_GPGSA_Analysis                      0x0800ba35   Thumb Code   176  gps.o(.text)
    NMEA_GPRMC_Analysis                      0x0800bae5   Thumb Code   882  gps.o(.text)
    NMEA_GPVTG_Analysis                      0x0800be57   Thumb Code   218  gps.o(.text)
    GPS_Analysis                             0x0800bf31   Thumb Code    48  gps.o(.text)
    Usart2_Init                              0x0800bf85   Thumb Code   214  usart_fc.o(.text)
    Data_Receive_Anl                         0x0800c05b   Thumb Code  1200  usart_fc.o(.text)
    USART2_IRQHandler                        0x0800c50b   Thumb Code   348  usart_fc.o(.text)
    UsartSend_GOL_LINK                       0x0800c667   Thumb Code    28  usart_fc.o(.text)
    Send_UKF1                                0x0800c69d   Thumb Code  1454  usart_fc.o(.text)
    Send_CAL                                 0x0800cc4b   Thumb Code   734  usart_fc.o(.text)
    Send_MEMS                                0x0800cf29   Thumb Code   888  usart_fc.o(.text)
    Send_ATT                                 0x0800d2a1   Thumb Code   886  usart_fc.o(.text)
    Send_BLE_DEBUG                           0x0800d617   Thumb Code   862  usart_fc.o(.text)
    Send_GPS                                 0x0800d975   Thumb Code   442  usart_fc.o(.text)
    GOL_LINK_TASK                            0x0800db2f   Thumb Code    90  usart_fc.o(.text)
    data_per_uart4                           0x0800db89   Thumb Code  7096  usart_fc.o(.text)
    GOL_LINK_TASK_DMA                        0x0800f741   Thumb Code    10  usart_fc.o(.text)
    clear_nrf_uart                           0x0800f74b   Thumb Code    28  usart_fc.o(.text)
    Uart5_Init                               0x0800f767   Thumb Code   208  usart_fc.o(.text)
    Data_Receive_Anl_FLOW                    0x0800f837   Thumb Code   250  usart_fc.o(.text)
    UART5_IRQHandler                         0x0800f931   Thumb Code   350  usart_fc.o(.text)
    Uart5_Send                               0x0800fa8f   Thumb Code    30  usart_fc.o(.text)
    Ublox_PVT_Mode                           0x0800faad   Thumb Code   170  usart_fc.o(.text)
    Usart1_Init                              0x0800fb57   Thumb Code   224  usart_fc.o(.text)
    Data_Receive_Anl_odroid                  0x0800fc37   Thumb Code   168  usart_fc.o(.text)
    IMU_DJ_ANGLE                             0x0800fcdf   Thumb Code   210  usart_fc.o(.text)
    Ublox_DOP_Mode                           0x0800fdb1   Thumb Code   106  usart_fc.o(.text)
    Gps_data_get_PVT                         0x0800fe1b   Thumb Code  1554  usart_fc.o(.text)
    Gps_data_get_DOP                         0x0801042d   Thumb Code   500  usart_fc.o(.text)
    Gps_data_get_POSLLH                      0x08010621   Thumb Code   802  usart_fc.o(.text)
    Gps_data_get_VALNED                      0x08010943   Thumb Code  1036  usart_fc.o(.text)
    Data_Receive_Anl11                       0x08010d4f   Thumb Code  1168  usart_fc.o(.text)
    USART1_IRQHandler                        0x080111df   Thumb Code   386  usart_fc.o(.text)
    Usart4_Init                              0x08011361   Thumb Code   286  usart_fc.o(.text)
    Laser_Get                                0x0801147f   Thumb Code   254  usart_fc.o(.text)
    Data_Receive_Anl4                        0x0801157d   Thumb Code  1426  usart_fc.o(.text)
    UART4_IRQHandler                         0x08011b0f   Thumb Code   326  usart_fc.o(.text)
    UsartSend_M100                           0x08011c55   Thumb Code    28  usart_fc.o(.text)
    UsartSend_SD                             0x08011c71   Thumb Code    28  usart_fc.o(.text)
    Laser_start                              0x08011cd9   Thumb Code    52  usart_fc.o(.text)
    Laser_stop                               0x08011d0d   Thumb Code    52  usart_fc.o(.text)
    Send_TO_FLOW_PI                          0x08011d41   Thumb Code   490  usart_fc.o(.text)
    Send_TO_FLOW_NAV_GPS                     0x08011f2b   Thumb Code   746  usart_fc.o(.text)
    UART2_Put_Char                           0x08012215   Thumb Code    28  usart_fc.o(.text)
    UART2_ReportMotion                       0x08012231   Thumb Code   400  usart_fc.o(.text)
    UART2_ReportIMU                          0x080123c1   Thumb Code   300  usart_fc.o(.text)
    Send_IMU_SD                              0x080124ed   Thumb Code   696  usart_fc.o(.text)
    Send_ATT_PID_SD                          0x080127a5   Thumb Code   100  usart_fc.o(.text)
    Send_FLOW_PID_SD                         0x08012809   Thumb Code   100  usart_fc.o(.text)
    Send_ALT_PID_SD                          0x0801286d   Thumb Code   100  usart_fc.o(.text)
    Send_MODE_SD                             0x080128d1   Thumb Code   120  usart_fc.o(.text)
    Send_FLOW_USE_SD                         0x08012949   Thumb Code   390  usart_fc.o(.text)
    Send_SLAM_SD                             0x08012acf   Thumb Code   262  usart_fc.o(.text)
    Send_GPS_SD                              0x08012bd5   Thumb Code   516  usart_fc.o(.text)
    SD_LINK_TASK2                            0x08012dd9   Thumb Code    52  usart_fc.o(.text)
    Usart3_Init                              0x08012e0d   Thumb Code   216  usart_fc.o(.text)
    Data_Receive_Anl3                        0x08012ee5   Thumb Code   162  usart_fc.o(.text)
    USART3_IRQHandler                        0x08012f87   Thumb Code   354  usart_fc.o(.text)
    UsartSend_GPS                            0x080130e9   Thumb Code    28  usart_fc.o(.text)
    Send_IMU_TO_GPS                          0x0801311f   Thumb Code   112  usart_fc.o(.text)
    CPU_LINK_TASK                            0x0801318f   Thumb Code    30  usart_fc.o(.text)
    UsartSend_GOL_LINK_NAV                   0x080131ad   Thumb Code    28  usart_fc.o(.text)
    Send_IMU_NAV                             0x080131e3   Thumb Code   658  usart_fc.o(.text)
    data_per_uart1                           0x08013475   Thumb Code  1380  usart_fc.o(.text)
    data_per_uart2                           0x080139d9   Thumb Code   108  usart_fc.o(.text)
    GOL_LINK_BLE_DEBUG                       0x08013a45   Thumb Code   568  usart_fc.o(.text)
    data_per_uart3                           0x08013c7d   Thumb Code   630  usart_fc.o(.text)
    LIS3MDL_enableDefault                    0x08013efd   Thumb Code   120  lis3mdl.o(.text)
    LIS3MDL_read                             0x08013f75   Thumb Code   150  lis3mdl.o(.text)
    LSM6_readAcc                             0x0801400b   Thumb Code   144  lis3mdl.o(.text)
    LSM6_readGyro                            0x0801409b   Thumb Code   144  lis3mdl.o(.text)
    LPS_readPressureRaw                      0x0801412b   Thumb Code    62  lis3mdl.o(.text)
    LPS_readTemperatureRaw                   0x08014169   Thumb Code    42  lis3mdl.o(.text)
    LPS_readTemperatureC                     0x08014193   Thumb Code    70  lis3mdl.o(.text)
    LPS_readTemperatureF                     0x080141d9   Thumb Code    86  lis3mdl.o(.text)
    LPS_pressureToAltitudeMeters             0x0801422f   Thumb Code   106  lis3mdl.o(.text)
    LPS_pressureToAltitudeFeet               0x08014299   Thumb Code   106  lis3mdl.o(.text)
    LP_readbmp                               0x08014303   Thumb Code   206  lis3mdl.o(.text)
    LIS_CalOffset_Mag                        0x080143d1   Thumb Code  2142  lis3mdl.o(.text)
    LIS_Data_Offset                          0x08014c2f   Thumb Code  1754  lis3mdl.o(.text)
    LIS_Data_Prepare                         0x08015613   Thumb Code  2366  lis3mdl.o(.text)
    MPU6050_Data_Prepare                     0x08015f75   Thumb Code   158  mpu6050.o(.text)
    anotc_filter_1                           0x0801601d   Thumb Code   446  fliter.o(.text)
    my_deathzoom1                            0x080161db   Thumb Code    54  fliter.o(.text)
    Moving_Average1                          0x08016211   Thumb Code    94  fliter.o(.text)
    Moving_Average                           0x0801626f   Thumb Code    94  fliter.o(.text)
    Moving_Median                            0x080162cd   Thumb Code   236  fliter.o(.text)
    IIR_I_Filter                             0x080163b9   Thumb Code   326  fliter.o(.text)
    LPF_1st                                  0x080164ff   Thumb Code    22  fliter.o(.text)
    simple_3d_trans                          0x08016515   Thumb Code   272  fliter.o(.text)
    initFirstOrderFilter                     0x08016625   Thumb Code   220  fliter.o(.text)
    firstOrderFilter                         0x08016701   Thumb Code    82  fliter.o(.text)
    LPButterworth_Init                       0x08016753   Thumb Code    52  fliter.o(.text)
    LPButterworth                            0x08016787   Thumb Code   160  fliter.o(.text)
    utilFilterReset                          0x08016827   Thumb Code     6  fliter.o(.text)
    utilFilterReset3                         0x0801682d   Thumb Code    44  fliter.o(.text)
    utilFilterInit                           0x08016859   Thumb Code    28  fliter.o(.text)
    utilFilterInit3                          0x08016875   Thumb Code    76  fliter.o(.text)
    utilFilter                               0x080168c1   Thumb Code    34  fliter.o(.text)
    SONAR_GPIO_Config                        0x0801692d   Thumb Code   172  ultrasonic.o(.text)
    GPIO_SET_SONAR                           0x080169d9   Thumb Code    16  ultrasonic.o(.text)
    GPIO_RESET_SONAR                         0x080169e9   Thumb Code    16  ultrasonic.o(.text)
    GPIO_READ_SONAR                          0x080169f9   Thumb Code    22  ultrasonic.o(.text)
    Ultrasonic_Init                          0x08016a0f   Thumb Code     2  ultrasonic.o(.text)
    Ultra_Duty                               0x08016a11   Thumb Code    50  ultrasonic.o(.text)
    sonar_filter                             0x08016a43   Thumb Code   592  ultrasonic.o(.text)
    sonar_filter_bmp                         0x08016c93   Thumb Code   680  ultrasonic.o(.text)
    EXTI15_10_IRQHandler                     0x08016f3b   Thumb Code   522  ultrasonic.o(.text)
    Ultra_Get                                0x08017145   Thumb Code   422  ultrasonic.o(.text)
    my_abs                                   0x080172fd   Thumb Code    26  my_math.o(.text)
    sign_flow                                0x08017317   Thumb Code    36  my_math.o(.text)
    fast_atan2                               0x0801733b   Thumb Code   350  my_math.o(.text)
    my_atan                                  0x08017499   Thumb Code    24  my_math.o(.text)
    my_pow                                   0x080174b1   Thumb Code    10  my_math.o(.text)
    my_sqrt                                  0x080174bb   Thumb Code    88  my_math.o(.text)
    mx_sin                                   0x08017513   Thumb Code   292  my_math.o(.text)
    my_sin                                   0x08017637   Thumb Code   108  my_math.o(.text)
    my_cos                                   0x080176a3   Thumb Code   136  my_math.o(.text)
    my_deathzoom                             0x0801772b   Thumb Code   158  my_math.o(.text)
    my_deathzoom_2                           0x080177c9   Thumb Code    40  my_math.o(.text)
    limit_mine                               0x080177f1   Thumb Code    40  my_math.o(.text)
    limit_mine2                              0x08017819   Thumb Code    36  my_math.o(.text)
    To_180_degrees                           0x0801783d   Thumb Code    58  my_math.o(.text)
    my_pow_2_curve                           0x08017877   Thumb Code    80  my_math.o(.text)
    body_to_NEZ                              0x080178c7   Thumb Code   430  my_math.o(.text)
    KF_OLDX_NAV                              0x0801832d   Thumb Code  2886  kf_oldx_nav.o(.text)
    KF_OLDX_NAV_initialize                   0x08018e73   Thumb Code    10  kf_oldx_nav.o(.text)
    KF_OLDX_NAV_terminate                    0x08018e7d   Thumb Code     2  kf_oldx_nav.o(.text)
    compassNormalize                         0x08018e85   Thumb Code    54  nav_ukf.o(.text)
    compassDifference                        0x08018ebb   Thumb Code    70  nav_ukf.o(.text)
    navUkfNormalizeVec3                      0x08019159   Thumb Code    78  nav_ukf.o(.text)
    navUkfNormalizeQuat                      0x080191a7   Thumb Code   110  nav_ukf.o(.text)
    crossVector3                             0x08019215   Thumb Code   164  nav_ukf.o(.text)
    dotVector3                               0x080192b9   Thumb Code    38  nav_ukf.o(.text)
    navUkfRotateVectorByQuat                 0x080192df   Thumb Code   430  nav_ukf.o(.text)
    navUkfRotateVectorByRevQuat              0x0801948d   Thumb Code    64  nav_ukf.o(.text)
    navUkfRotateVecByMatrix                  0x080194cd   Thumb Code   122  nav_ukf.o(.text)
    navUkfMatrixExtractEuler                 0x0801972b   Thumb Code   208  nav_ukf.o(.text)
    navUkfQuatExtractEuler                   0x080197fb   Thumb Code   184  nav_ukf.o(.text)
    navUkfTimeUpdate                         0x080199cd   Thumb Code  2020  nav_ukf.o(.text)
    navUkfRateUpdate                         0x0801a1b1   Thumb Code    42  nav_ukf.o(.text)
    navUkfAccUpdate                          0x0801a1db   Thumb Code    72  nav_ukf.o(.text)
    navUkfMagUpdate                          0x0801a223   Thumb Code   316  nav_ukf.o(.text)
    navUkfPresUpdate                         0x0801a35f   Thumb Code    18  nav_ukf.o(.text)
    navUkfPresGPSAltUpdate                   0x0801a371   Thumb Code    34  nav_ukf.o(.text)
    navUkfPosUpdate                          0x0801a393   Thumb Code    50  nav_ukf.o(.text)
    navUkfVelUpdate                          0x0801a3c5   Thumb Code    50  nav_ukf.o(.text)
    navUkfOfVelUpdate                        0x0801a3f7   Thumb Code    34  nav_ukf.o(.text)
    navUkfOfPosUpdate                        0x0801a419   Thumb Code    50  nav_ukf.o(.text)
    navUkfFinish                             0x0801a44b   Thumb Code   182  nav_ukf.o(.text)
    navUkfInertialUpdate                     0x0801a501   Thumb Code   540  nav_ukf.o(.text)
    navUkfZeroRate                           0x0801a71d   Thumb Code    74  nav_ukf.o(.text)
    simDoPresUpdate                          0x0801a767   Thumb Code   122  nav_ukf.o(.text)
    simDoAccUpdate                           0x0801a7e1   Thumb Code   386  nav_ukf.o(.text)
    simDoMagUpdate                           0x0801a963   Thumb Code   362  nav_ukf.o(.text)
    navUkfZeroPos                            0x0801aacd   Thumb Code   150  nav_ukf.o(.text)
    navUkfGpsPosUpdate                       0x0801ab63   Thumb Code  2040  nav_ukf.o(.text)
    navUkfZeroVel                            0x0801b35b   Thumb Code   116  nav_ukf.o(.text)
    navUkfGpsVelUpdate                       0x0801b3cf   Thumb Code  1794  nav_ukf.o(.text)
    navUkfResetBias                          0x0801bad1   Thumb Code    86  nav_ukf.o(.text)
    navUkfResetVels                          0x0801bb27   Thumb Code    44  nav_ukf.o(.text)
    navUkfInitState                          0x0801bb53   Thumb Code   902  nav_ukf.o(.text)
    navUkfInit                               0x0801bed9   Thumb Code   618  nav_ukf.o(.text)
    navPressureAdjust                        0x0801c143   Thumb Code    22  nav_ukf.o(.text)
    runInit                                  0x0801c159   Thumb Code   538  nav_ukf.o(.text)
    runTaskCode                              0x0801c373   Thumb Code  2786  nav_ukf.o(.text)
    invSqrt                                  0x0801ce91   Thumb Code    56  imu_m.o(.text)
    calculateAccConfidence                   0x0801cec9   Thumb Code   224  imu_m.o(.text)
    calculateHmlConfidence                   0x0801cfa9   Thumb Code   198  imu_m.o(.text)
    madgwick_update_new                      0x0801d06f   Thumb Code  3578  imu_m.o(.text)
    OLDX_KF3                                 0x0801de91   Thumb Code   786  ukf_task.o(.text)
    ukf_pos_task_qr                          0x0801e585   Thumb Code  6050  ukf_task.o(.text)
    arm_mat_trans_f32                        0x0801fd5d   Thumb Code   182  alt_kf.o(.text)
    arm_mat_mult_f32                         0x0801fe13   Thumb Code   400  alt_kf.o(.text)
    arm_mat_init_f32                         0x0801ffa3   Thumb Code     8  alt_kf.o(.text)
    arm_fill_f32                             0x0801ffab   Thumb Code    46  alt_kf.o(.text)
    qrDecompositionT_f32                     0x0801ffd9   Thumb Code   752  alt_kf.o(.text)
    matrixDiv_f32                            0x080202c9   Thumb Code   242  alt_kf.o(.text)
    aqDataCalloc                             0x080203bb   Thumb Code    52  alt_kf.o(.text)
    matrixInit                               0x080203ef   Thumb Code    50  alt_kf.o(.text)
    matrixFree                               0x08020421   Thumb Code    18  alt_kf.o(.text)
    srcdkfTimeUpdate                         0x0802051f   Thumb Code   400  alt_kf.o(.text)
    srcdkfMeasurementUpdate                  0x080206af   Thumb Code  1366  alt_kf.o(.text)
    srcdkfInit                               0x08020c05   Thumb Code   540  alt_kf.o(.text)
    srcdkfGetState                           0x08020e21   Thumb Code     6  alt_kf.o(.text)
    srcdkfSetVariance                        0x08020e27   Thumb Code   166  alt_kf.o(.text)
    altUkfTimeUpdate                         0x08020ecd   Thumb Code   200  alt_kf.o(.text)
    flowUkfTimeUpdate                        0x08020f95   Thumb Code   200  alt_kf.o(.text)
    altUkfPresUpdate                         0x0802105d   Thumb Code    18  alt_kf.o(.text)
    flowUpdate                               0x0802106f   Thumb Code    18  alt_kf.o(.text)
    gpsUpdate                                0x08021081   Thumb Code    18  alt_kf.o(.text)
    sonar_filter_oldx                        0x08021129   Thumb Code   424  alt_kf.o(.text)
    insert_sonar_value_and_get_mode_value    0x08021331   Thumb Code    84  alt_kf.o(.text)
    fusion_prepare                           0x08021385   Thumb Code   178  alt_kf.o(.text)
    acc_fusion                               0x08021437   Thumb Code   456  alt_kf.o(.text)
    OLDX_KF2                                 0x08021a57   Thumb Code   834  alt_kf.o(.text)
    altUkfProcess                            0x08021e4d   Thumb Code  1274  alt_kf.o(.text)
    FlowUkfProcess                           0x08022347   Thumb Code   250  alt_kf.o(.text)
    GpsUkfProcess                            0x080227bd   Thumb Code   808  alt_kf.o(.text)
    altUkfInit                               0x08022ae5   Thumb Code   534  alt_kf.o(.text)
    arm_std_f32                              0x08022d45   Thumb Code   250  arm_std_f32.o(.text)
    cycle_init_oldx                          0x08022e45   Thumb Code   184  cycle_cal_oldx.o(.text)
    cycle_data_add_oldx                      0x08022efd   Thumb Code   420  cycle_cal_oldx.o(.text)
    cycle_cal_oldx                           0x080230a1   Thumb Code  1980  cycle_cal_oldx.o(.text)
    ByteToFloat                              0x0802385d   Thumb Code     6  flow.o(.text)
    flow_uart_rx_oldx                        0x08023863   Thumb Code   910  flow.o(.text)
    flow_pertreatment_oldx                   0x08023bf1   Thumb Code  1928  flow.o(.text)
    free                                     0x080243b1   Thumb Code    78  h1_free.o(.text)
    strstr                                   0x080243ff   Thumb Code    36  strstr.o(.text)
    __aeabi_memcpy4                          0x08024423   Thumb Code     0  rt_memcpy_w.o(.text)
    __aeabi_memcpy8                          0x08024423   Thumb Code     0  rt_memcpy_w.o(.text)
    __rt_memcpy_w                            0x08024423   Thumb Code   100  rt_memcpy_w.o(.text)
    _memcpy_lastbytes_aligned                0x0802446b   Thumb Code     0  rt_memcpy_w.o(.text)
    __aeabi_memclr4                          0x08024487   Thumb Code     0  rt_memclr_w.o(.text)
    __aeabi_memclr8                          0x08024487   Thumb Code     0  rt_memclr_w.o(.text)
    __rt_memclr_w                            0x08024487   Thumb Code    78  rt_memclr_w.o(.text)
    _memset_w                                0x0802448b   Thumb Code     0  rt_memclr_w.o(.text)
    __use_two_region_memory                  0x080244d5   Thumb Code     2  heapauxi.o(.text)
    __rt_heap_escrow                         0x080244d7   Thumb Code     2  heapauxi.o(.text)
    __rt_heap_expand                         0x080244d9   Thumb Code     2  heapauxi.o(.text)
    __rt_heap_descriptor                     0x080244dd   Thumb Code     8  rt_heap_descriptor_intlibspace.o(.text)
    __read_errno                             0x080244e5   Thumb Code    10  _rserrno.o(.text)
    __set_errno                              0x080244ef   Thumb Code    12  _rserrno.o(.text)
    __user_libspace                          0x080244fd   Thumb Code     8  libspace.o(.text)
    __user_perproc_libspace                  0x080244fd   Thumb Code     0  libspace.o(.text)
    __user_perthread_libspace                0x080244fd   Thumb Code     0  libspace.o(.text)
    __aeabi_errno_addr                       0x08024505   Thumb Code     8  rt_errno_addr_intlibspace.o(.text)
    __errno$intlibspace                      0x08024505   Thumb Code     0  rt_errno_addr_intlibspace.o(.text)
    __rt_errno_addr$intlibspace              0x08024505   Thumb Code     0  rt_errno_addr_intlibspace.o(.text)
    __user_setup_stackheap                   0x0802450d   Thumb Code    74  sys_stackheap_outer.o(.text)
    exit                                     0x08024557   Thumb Code    18  exit.o(.text)
    _sys_exit                                0x08024569   Thumb Code     8  sys_exit.o(.text)
    __I$use$semihosting                      0x08024575   Thumb Code     0  use_no_semi.o(.text)
    __use_no_semihosting_swi                 0x08024575   Thumb Code     2  use_no_semi.o(.text)
    __ARM_fpclassify                         0x08024577   Thumb Code    48  fpclassify.o(i.__ARM_fpclassify)
    __semihosting_library_function           0x08024577   Thumb Code     0  indicate_semi.o(.text)
    __ARM_fpclassifyf                        0x080245a7   Thumb Code    38  fpclassifyf.o(i.__ARM_fpclassifyf)
    __hardfp_acos                            0x080245d1   Thumb Code   738  acos.o(i.__hardfp_acos)
    __hardfp_asin                            0x08024929   Thumb Code   770  asin.o(i.__hardfp_asin)
    __hardfp_asinf                           0x08024c89   Thumb Code   258  asinf.o(i.__hardfp_asinf)
    __hardfp_atan2f                          0x08024db5   Thumb Code   502  atan2f.o(i.__hardfp_atan2f)
    __hardfp_atanf                           0x08025005   Thumb Code   296  atanf.o(i.__hardfp_atanf)
    __hardfp_cos                             0x08025169   Thumb Code   180  cos.o(i.__hardfp_cos)
    __hardfp_cosf                            0x08025231   Thumb Code   280  cosf.o(i.__hardfp_cosf)
    __hardfp_fabs                            0x08025381   Thumb Code    20  fabs.o(i.__hardfp_fabs)
    __hardfp_floor                           0x08025399   Thumb Code   252  floor.o(i.__hardfp_floor)
    __hardfp_pow                             0x080254b1   Thumb Code  3072  pow.o(i.__hardfp_pow)
    __hardfp_powf                            0x08026101   Thumb Code  1606  powf.o(i.__hardfp_powf)
    __mathlib_powf                           0x08026101   Thumb Code     0  powf.o(i.__hardfp_powf)
    __hardfp_sin                             0x08026769   Thumb Code   180  sin.o(i.__hardfp_sin)
    __hardfp_sinf                            0x08026831   Thumb Code   344  sinf.o(i.__hardfp_sinf)
    __hardfp_sqrt                            0x080269c1   Thumb Code   122  sqrt.o(i.__hardfp_sqrt)
    __ieee754_rem_pio2                       0x08026a41   Thumb Code   938  rred.o(i.__ieee754_rem_pio2)
    __kernel_cos                             0x08026e79   Thumb Code   322  cos_i.o(i.__kernel_cos)
    __kernel_poly                            0x08026fe9   Thumb Code   248  poly.o(i.__kernel_poly)
    __kernel_sin                             0x080270e1   Thumb Code   280  sin_i.o(i.__kernel_sin)
    __mathlib_dbl_divzero                    0x08027211   Thumb Code    28  dunder.o(i.__mathlib_dbl_divzero)
    __mathlib_dbl_infnan                     0x08027241   Thumb Code    20  dunder.o(i.__mathlib_dbl_infnan)
    __mathlib_dbl_infnan2                    0x08027255   Thumb Code    20  dunder.o(i.__mathlib_dbl_infnan2)
    __mathlib_dbl_invalid                    0x08027269   Thumb Code    24  dunder.o(i.__mathlib_dbl_invalid)
    __mathlib_dbl_overflow                   0x08027289   Thumb Code    24  dunder.o(i.__mathlib_dbl_overflow)
    __mathlib_dbl_underflow                  0x080272a9   Thumb Code    24  dunder.o(i.__mathlib_dbl_underflow)
    __mathlib_flt_divzero                    0x080272c9   Thumb Code    14  funder.o(i.__mathlib_flt_divzero)
    __mathlib_flt_infnan                     0x080272dd   Thumb Code     6  funder.o(i.__mathlib_flt_infnan)
    __mathlib_flt_infnan2                    0x080272e3   Thumb Code     6  funder.o(i.__mathlib_flt_infnan2)
    __mathlib_flt_invalid                    0x080272e9   Thumb Code    10  funder.o(i.__mathlib_flt_invalid)
    __mathlib_flt_overflow                   0x080272f9   Thumb Code    10  funder.o(i.__mathlib_flt_overflow)
    __mathlib_flt_underflow                  0x08027309   Thumb Code    10  funder.o(i.__mathlib_flt_underflow)
    __mathlib_rredf2                         0x08027319   Thumb Code   316  rredf.o(i.__mathlib_rredf2)
    fabs                                     0x0802746d   Thumb Code    24  fabs.o(i.fabs)
    sqrt                                     0x08027485   Thumb Code   110  sqrt.o(i.sqrt)
    sqrtf                                    0x080274f3   Thumb Code    62  sqrtf.o(i.sqrtf)
    __aeabi_dneg                             0x08027531   Thumb Code     0  basic.o(x$fpl$basic)
    _dneg                                    0x08027531   Thumb Code     6  basic.o(x$fpl$basic)
    __aeabi_fneg                             0x08027537   Thumb Code     0  basic.o(x$fpl$basic)
    _fneg                                    0x08027537   Thumb Code     6  basic.o(x$fpl$basic)
    _dabs                                    0x0802753d   Thumb Code     6  basic.o(x$fpl$basic)
    _fabs                                    0x08027543   Thumb Code     6  basic.o(x$fpl$basic)
    __aeabi_d2f                              0x08027549   Thumb Code     0  d2f.o(x$fpl$d2f)
    _d2f                                     0x08027549   Thumb Code    98  d2f.o(x$fpl$d2f)
    __aeabi_dadd                             0x080275ad   Thumb Code     0  daddsub_clz.o(x$fpl$dadd)
    _dadd                                    0x080275ad   Thumb Code   332  daddsub_clz.o(x$fpl$dadd)
    __fpl_dcheck_NaN1                        0x080276fd   Thumb Code    10  dcheck1.o(x$fpl$dcheck1)
    __fpl_dcmp_Inf                           0x0802770d   Thumb Code    24  dcmpi.o(x$fpl$dcmpinf)
    __aeabi_ddiv                             0x08027725   Thumb Code     0  ddiv.o(x$fpl$ddiv)
    _ddiv                                    0x08027725   Thumb Code   552  ddiv.o(x$fpl$ddiv)
    __aeabi_cdcmpeq                          0x080279d5   Thumb Code     0  deqf.o(x$fpl$deqf)
    _dcmpeq                                  0x080279d5   Thumb Code   120  deqf.o(x$fpl$deqf)
    __aeabi_d2iz                             0x08027a4d   Thumb Code     0  dfix.o(x$fpl$dfix)
    _dfix                                    0x08027a4d   Thumb Code    94  dfix.o(x$fpl$dfix)
    __aeabi_i2d                              0x08027aab   Thumb Code     0  dflt_clz.o(x$fpl$dflt)
    _dflt                                    0x08027aab   Thumb Code    46  dflt_clz.o(x$fpl$dflt)
    __aeabi_ui2d                             0x08027ad9   Thumb Code     0  dflt_clz.o(x$fpl$dfltu)
    _dfltu                                   0x08027ad9   Thumb Code    38  dflt_clz.o(x$fpl$dfltu)
    __aeabi_cdcmple                          0x08027b01   Thumb Code     0  dleqf.o(x$fpl$dleqf)
    _dcmple                                  0x08027b01   Thumb Code   120  dleqf.o(x$fpl$dleqf)
    __fpl_dcmple_InfNaN                      0x08027b63   Thumb Code     0  dleqf.o(x$fpl$dleqf)
    __aeabi_dmul                             0x08027b79   Thumb Code     0  dmul.o(x$fpl$dmul)
    _dmul                                    0x08027b79   Thumb Code   332  dmul.o(x$fpl$dmul)
    __fpl_dnaninf                            0x08027ccd   Thumb Code   156  dnaninf.o(x$fpl$dnaninf)
    __fpl_dretinf                            0x08027d69   Thumb Code    12  dretinf.o(x$fpl$dretinf)
    __aeabi_cdrcmple                         0x08027d75   Thumb Code     0  drleqf.o(x$fpl$drleqf)
    _drcmple                                 0x08027d75   Thumb Code   108  drleqf.o(x$fpl$drleqf)
    __aeabi_drsub                            0x08027de1   Thumb Code     0  daddsub_clz.o(x$fpl$drsb)
    _drsb                                    0x08027de1   Thumb Code    22  daddsub_clz.o(x$fpl$drsb)
    _dsqrt                                   0x08027df9   Thumb Code   404  dsqrt_umaal.o(x$fpl$dsqrt)
    __aeabi_dsub                             0x08027f91   Thumb Code     0  daddsub_clz.o(x$fpl$dsub)
    _dsub                                    0x08027f91   Thumb Code   464  daddsub_clz.o(x$fpl$dsub)
    __aeabi_f2d                              0x08028165   Thumb Code     0  f2d.o(x$fpl$f2d)
    _f2d                                     0x08028165   Thumb Code    86  f2d.o(x$fpl$f2d)
    __fpl_fnaninf                            0x080281bb   Thumb Code   140  fnaninf.o(x$fpl$fnaninf)
    _fp_init                                 0x08028247   Thumb Code    10  fpinit.o(x$fpl$fpinit)
    __fplib_config_fpu_vfp                   0x0802824f   Thumb Code     0  fpinit.o(x$fpl$fpinit)
    __fplib_config_pureend_doubles           0x0802824f   Thumb Code     0  fpinit.o(x$fpl$fpinit)
    __fpl_fretinf                            0x08028251   Thumb Code    10  fretinf.o(x$fpl$fretinf)
    __fpl_return_NaN                         0x0802825b   Thumb Code   100  retnan.o(x$fpl$retnan)
    __ARM_scalbn                             0x080282bf   Thumb Code    92  scalbn.o(x$fpl$scalbn)
    __fpl_cmpreturn                          0x0802831b   Thumb Code    48  trapv.o(x$fpl$trapveneer)
    OSUnMapTbl                               0x0802834a   Data         256  os_core.o(.constdata)
    __I$use$fp                               0x0802834a   Number         0  usenofp.o(x$fpl$usenofp)
    __mathlib_zero                           0x080287b8   Data           8  qnan.o(.constdata)
    Region$$Table$$Base                      0x080288d0   Number         0  anon$$obj.o(Region$$Table)
    Region$$Table$$Limit                     0x080288f0   Number         0  anon$$obj.o(Region$$Table)
    ccmHeap                                  0x20000000   Data       40960  alt_kf.o(.ccm)
    fly_ready                                0x2000a000   Data           1  ucos_task.o(.data)
    inner_loop_time_time                     0x2000a004   Data           4  ucos_task.o(.data)
    inner_loop_time_time_int                 0x2000a008   Data           4  ucos_task.o(.data)
    GOL_LINK_BUSY                            0x2000a00c   Data           2  ucos_task.o(.data)
    cnt_time                                 0x2000a00e   Data           4  ucos_task.o(.data)
    YawR                                     0x2000a014   Data           4  ucos_task.o(.data)
    PitchR                                   0x2000a018   Data           4  ucos_task.o(.data)
    RollR                                    0x2000a01c   Data           4  ucos_task.o(.data)
    YawRm                                    0x2000a020   Data           4  ucos_task.o(.data)
    PitchRm                                  0x2000a024   Data           4  ucos_task.o(.data)
    RollRm                                   0x2000a028   Data           4  ucos_task.o(.data)
    outer_loop_time                          0x2000a02c   Data           4  ucos_task.o(.data)
    k_gyro_z                                 0x2000a030   Data           4  ucos_task.o(.data)
    ekf_loop_time                            0x2000a034   Data           4  ucos_task.o(.data)
    focal_length_px                          0x2000a038   Data           4  ucos_task.o(.data)
    accumulated_flow_x                       0x2000a03c   Data           4  ucos_task.o(.data)
    accumulated_flow_y                       0x2000a040   Data           4  ucos_task.o(.data)
    accumulated_gyro_x                       0x2000a044   Data           4  ucos_task.o(.data)
    accumulated_gyro_y                       0x2000a048   Data           4  ucos_task.o(.data)
    accumulated_gyro_z                       0x2000a04c   Data           4  ucos_task.o(.data)
    accumulated_framecount                   0x2000a050   Data           2  ucos_task.o(.data)
    accumulated_quality                      0x2000a052   Data           2  ucos_task.o(.data)
    integration_timespan                     0x2000a054   Data           4  ucos_task.o(.data)
    k_flow_acc                               0x2000a058   Data           8  ucos_task.o(.data)
    k_gro_acc                                0x2000a060   Data           4  ucos_task.o(.data)
    flt_gro                                  0x2000a064   Data           4  ucos_task.o(.data)
    k_time_use                               0x2000a068   Data           4  ucos_task.o(.data)
    imu_board_test                           0x2000a06c   Data           1  ucos_task.o(.data)
    MID_CNT_SPD                              0x2000a06d   Data           1  ucos_task.o(.data)
    k_flp                                    0x2000a070   Data           4  ucos_task.o(.data)
    b                                        0x2000a0c8   Data          12  ucos_task.o(.data)
    a                                        0x2000a0d4   Data          12  ucos_task.o(.data)
    baro_matlab_data                         0x2000a0e0   Data           8  ucos_task.o(.data)
    flow_loop_time                           0x2000a0e8   Data           4  ucos_task.o(.data)
    k_flow_devide_pi                         0x2000a0ec   Data           4  ucos_task.o(.data)
    UART_UP_LOAD_SEL                         0x2000a0f0   Data           1  ucos_task.o(.data)
    time_uart                                0x2000a0f4   Data           4  ucos_task.o(.data)
    tmr1                                     0x2000a0f8   Data           4  ucos_task.o(.data)
    tmr2                                     0x2000a0fc   Data           4  ucos_task.o(.data)
    tmr3                                     0x2000a100   Data           4  ucos_task.o(.data)
    cpuusage                                 0x2000a104   Data           2  ucos_task.o(.data)
    msg_key                                  0x2000a134   Data           4  main.o(.data)
    q_msg                                    0x2000a138   Data           4  main.o(.data)
    flags_key                                0x2000a13c   Data           4  main.o(.data)
    ekf_loop_time1                           0x2000a140   Data           4  main.o(.data)
    ero                                      0x2000a144   Data           4  error.o(.data)
    sys                                      0x2000a148   Data           8  error.o(.data)
    rtInf                                    0x2000a160   Data           8  rt_nonfinite.o(.data)
    rtMinusInf                               0x2000a168   Data           8  rt_nonfinite.o(.data)
    rtNaN                                    0x2000a170   Data           8  rt_nonfinite.o(.data)
    rtInfF                                   0x2000a178   Data           4  rt_nonfinite.o(.data)
    rtMinusInfF                              0x2000a17c   Data           4  rt_nonfinite.o(.data)
    rtNaNF                                   0x2000a180   Data           4  rt_nonfinite.o(.data)
    SystemCoreClock                          0x2000a184   Data           4  system_stm32f4xx.o(.data)
    AHBPrescTable                            0x2000a188   Data          16  system_stm32f4xx.o(.data)
    OSCtxSwCtr                               0x2000a1ac   Data           4  os_core.o(.data)
    OSEventFreeList                          0x2000a1b0   Data           4  os_core.o(.data)
    OSFlagFreeList                           0x2000a1b4   Data           4  os_core.o(.data)
    OSCPUUsage                               0x2000a1b8   Data           1  os_core.o(.data)
    OSIdleCtrMax                             0x2000a1bc   Data           4  os_core.o(.data)
    OSIdleCtrRun                             0x2000a1c0   Data           4  os_core.o(.data)
    OSStatRdy                                0x2000a1c4   Data           1  os_core.o(.data)
    OSIntNesting                             0x2000a1c5   Data           1  os_core.o(.data)
    OSLockNesting                            0x2000a1c6   Data           1  os_core.o(.data)
    OSPrioCur                                0x2000a1c7   Data           1  os_core.o(.data)
    OSPrioHighRdy                            0x2000a1c8   Data           1  os_core.o(.data)
    OSRdyGrp                                 0x2000a1c9   Data           1  os_core.o(.data)
    OSRdyTbl                                 0x2000a1ca   Data           8  os_core.o(.data)
    OSRunning                                0x2000a1d2   Data           1  os_core.o(.data)
    OSTaskCtr                                0x2000a1d3   Data           1  os_core.o(.data)
    OSIdleCtr                                0x2000a1d4   Data           4  os_core.o(.data)
    OSTCBCur                                 0x2000a1d8   Data           4  os_core.o(.data)
    OSTCBFreeList                            0x2000a1dc   Data           4  os_core.o(.data)
    OSTCBHighRdy                             0x2000a1e0   Data           4  os_core.o(.data)
    OSTCBList                                0x2000a1e4   Data           4  os_core.o(.data)
    OSTickStepState                          0x2000a1e8   Data           1  os_core.o(.data)
    OSQFreeList                              0x2000a1ec   Data           4  os_core.o(.data)
    OSTime                                   0x2000a1f0   Data           4  os_core.o(.data)
    OSTmrFree                                0x2000a1f4   Data           2  os_core.o(.data)
    OSTmrUsed                                0x2000a1f6   Data           2  os_core.o(.data)
    OSTmrTime                                0x2000a1f8   Data           4  os_core.o(.data)
    OSTmrSem                                 0x2000a1fc   Data           4  os_core.o(.data)
    OSTmrSemSignal                           0x2000a200   Data           4  os_core.o(.data)
    OSTmrFreeList                            0x2000a204   Data           4  os_core.o(.data)
    OSInterrputSum                           0x2000a208   Data           4  os_cpu_c.o(.data)
    I2C_FastMode                             0x2000a20e   Data           1  iic_soft.o(.data)
    FLASH_SIZE                               0x2000a218   Data           4  flash.o(.data)
    W25QXX_TYPE                              0x2000a21c   Data           2  flash_w25.o(.data)
    GPS_SEL1                                 0x2000a220   Data           1  gps.o(.data)
    gps_dt                                   0x2000a224   Data           4  gps.o(.data)
    dt_flow_rx                               0x2000a228   Data           4  usart_fc.o(.data)
    data_rate_gol_link                       0x2000a22c   Data           2  usart_fc.o(.data)
    LOCK                                     0x2000a22e   Data           1  usart_fc.o(.data)
    KEY                                      0x2000a22f   Data           8  usart_fc.o(.data)
    KEY_SEL                                  0x2000a237   Data           4  usart_fc.o(.data)
    NAV_BOARD_CONNECT                        0x2000a23b   Data           1  usart_fc.o(.data)
    force_fly_ready                          0x2000a23c   Data           1  usart_fc.o(.data)
    k_flow_opencv                            0x2000a240   Data           4  usart_fc.o(.data)
    sonar_fc                                 0x2000a244   Data           4  usart_fc.o(.data)
    baroAlt_fc                               0x2000a248   Data           4  usart_fc.o(.data)
    fc_rx_time                               0x2000a24c   Data           4  usart_fc.o(.data)
    flow_module_set_yaw                      0x2000a250   Data           4  usart_fc.o(.data)
    acc_3d_step                              0x2000a254   Data           1  usart_fc.o(.data)
    imu_feed_dog                             0x2000a255   Data           1  usart_fc.o(.data)
    FC_CONNECT                               0x2000a256   Data           1  usart_fc.o(.data)
    fc_loss_cnt                              0x2000a258   Data           2  usart_fc.o(.data)
    fly_ready_force_zero                     0x2000a25a   Data           1  usart_fc.o(.data)
    TxCounter                                0x2000a25b   Data           1  usart_fc.o(.data)
    count                                    0x2000a25c   Data           1  usart_fc.o(.data)
    RxState                                  0x2000a25d   Data           1  usart_fc.o(.data)
    RxBufferNum                              0x2000a25e   Data           1  usart_fc.o(.data)
    RxBufferCnt                              0x2000a25f   Data           1  usart_fc.o(.data)
    RxLen                                    0x2000a260   Data           1  usart_fc.o(.data)
    com_data                                 0x2000a261   Data           1  usart_fc.o(.data)
    nrf_uart_cnt                             0x2000a264   Data           2  usart_fc.o(.data)
    Tx5Counter                               0x2000a266   Data           1  usart_fc.o(.data)
    count5                                   0x2000a267   Data           1  usart_fc.o(.data)
    dlf_odroid                               0x2000a268   Data           4  usart_fc.o(.data)
    TxCounter_u1                             0x2000a26c   Data           1  usart_fc.o(.data)
    count_u1                                 0x2000a26d   Data           1  usart_fc.o(.data)
    RxState_u1                               0x2000a26e   Data           1  usart_fc.o(.data)
    RxBufferNum_u1                           0x2000a26f   Data           1  usart_fc.o(.data)
    RxBufferCnt_u1                           0x2000a270   Data           1  usart_fc.o(.data)
    RxLen_u1                                 0x2000a271   Data           1  usart_fc.o(.data)
    USART3_RX_STA                            0x2000a274   Data           2  usart_fc.o(.data)
    buf_GPRMC                                0x2000a276   Data         100  usart_fc.o(.data)
    buf_GPRMCt                               0x2000a2da   Data         100  usart_fc.o(.data)
    buf_GPGGA                                0x2000a33e   Data         100  usart_fc.o(.data)
    buf_GPGGAt                               0x2000a3a2   Data         100  usart_fc.o(.data)
    gps_good                                 0x2000a406   Data           1  usart_fc.o(.data)
    gps_loss_cnt                             0x2000a408   Data           2  usart_fc.o(.data)
    k_gps_dow_spd                            0x2000a40c   Data           4  usart_fc.o(.data)
    gpsData_lastPosUpdate                    0x2000a410   Data           4  usart_fc.o(.data)
    gpsData_lastVelUpdate                    0x2000a414   Data           4  usart_fc.o(.data)
    gps_update                               0x2000a418   Data           4  usart_fc.o(.data)
    RxState11                                0x2000a41c   Data           1  usart_fc.o(.data)
    RxBufferNum11                            0x2000a41d   Data           1  usart_fc.o(.data)
    RxBufferCnt11                            0x2000a41e   Data           1  usart_fc.o(.data)
    RxLen11                                  0x2000a41f   Data           1  usart_fc.o(.data)
    _data_cnt11                              0x2000a420   Data           2  usart_fc.o(.data)
    _data_len11                              0x2000a422   Data           2  usart_fc.o(.data)
    RxBuffer4_test_cnt                       0x2000a424   Data           1  usart_fc.o(.data)
    RxState4                                 0x2000a425   Data           1  usart_fc.o(.data)
    RxBufferNum4                             0x2000a426   Data           1  usart_fc.o(.data)
    RxBufferCnt4                             0x2000a427   Data           1  usart_fc.o(.data)
    RxLen4                                   0x2000a428   Data           1  usart_fc.o(.data)
    en_px4_mapper                            0x2000a42b   Data           1  usart_fc.o(.data)
    rate_gps_board                           0x2000a42c   Data           4  usart_fc.o(.data)
    RxState3                                 0x2000a430   Data           1  usart_fc.o(.data)
    RxBufferNum3                             0x2000a431   Data           1  usart_fc.o(.data)
    RxBufferCnt3                             0x2000a432   Data           1  usart_fc.o(.data)
    RxLen3                                   0x2000a433   Data           1  usart_fc.o(.data)
    Angle_Yun                                0x2000a438   Data           8  usart_fc.o(.data)
    en_ble_debug                             0x2000a440   Data           1  usart_fc.o(.data)
    IMU1_Fast                                0x2000a480   Data           1  lis3mdl.o(.data)
    id                                       0x2000a481   Data           3  lis3mdl.o(.data)
    sum_temp_att                             0x2000a484   Data           8  lis3mdl.o(.data)
    acc_sum_cnt                              0x2000a48c   Data           2  lis3mdl.o(.data)
    acc_sum_cnt_3d                           0x2000a48e   Data           2  lis3mdl.o(.data)
    acc_smple_cnt_3d                         0x2000a490   Data           2  lis3mdl.o(.data)
    gyro_sum_cnt                             0x2000a492   Data           2  lis3mdl.o(.data)
    acc_tempFilter                           0x2000a6ac   Data           8  lis3mdl.o(.data)
    paOffsetNum                              0x2000a708   Data           8  ms5611_2.o(.data)
    paInitCnt                                0x2000a710   Data           2  ms5611_2.o(.data)
    paOffsetInited                           0x2000a712   Data           1  ms5611_2.o(.data)
    Baro_ALT_Updated                         0x2000a713   Data           1  ms5611_2.o(.data)
    MS5611_Temperature                       0x2000a714   Data           4  ms5611_2.o(.data)
    MS5611_Pressure                          0x2000a718   Data           4  ms5611_2.o(.data)
    MS5611_Altitude                          0x2000a71c   Data           4  ms5611_2.o(.data)
    MS5611_VerticalSpeed                     0x2000a720   Data           4  ms5611_2.o(.data)
    MS5611_Delay_us                          0x2000a724   Data          36  ms5611_2.o(.data)
    for_fly_ready                            0x2000a756   Data           1  ms5611_2.o(.data)
    baroAlt                                  0x2000a758   Data           4  ms5611_2.o(.data)
    baro_set                                 0x2000a75c   Data           1  ms5611_2.o(.data)
    T_sonar                                  0x2000a788   Data           4  ultrasonic.o(.data)
    ultra_start_f                            0x2000a78c   Data           1  ultrasonic.o(.data)
    ultra_time                               0x2000a78d   Data           1  ultrasonic.o(.data)
    ultra_ok                                 0x2000a78e   Data           1  ultrasonic.o(.data)
    x_pred                                   0x2000a790   Data           8  ultrasonic.o(.data)
    v_pred                                   0x2000a798   Data           8  ultrasonic.o(.data)
    x_post                                   0x2000a7a0   Data           8  ultrasonic.o(.data)
    v_post                                   0x2000a7a8   Data           8  ultrasonic.o(.data)
    sonar_raw                                0x2000a7b0   Data           4  ultrasonic.o(.data)
    scale_kal_sonar_v                        0x2000a7b4   Data           4  ultrasonic.o(.data)
    x_pred_bmp                               0x2000a7b8   Data           8  ultrasonic.o(.data)
    v_pred_bmp                               0x2000a7c0   Data           8  ultrasonic.o(.data)
    x_post_bmp                               0x2000a7c8   Data           8  ultrasonic.o(.data)
    v_post_bmp                               0x2000a7d0   Data           8  ultrasonic.o(.data)
    state_dj                                 0x2000a7d8   Data           5  ultrasonic.o(.data)
    state_dj_rx                              0x2000a7dd   Data           5  ultrasonic.o(.data)
    IO_STATE                                 0x2000a7e2   Data           5  ultrasonic.o(.data)
    IO_STATER                                0x2000a7e7   Data           5  ultrasonic.o(.data)
    TEMP_SONAR                               0x2000a7ec   Data           4  ultrasonic.o(.data)
    cnt_sample1                              0x2000a7f0   Data           4  ultrasonic.o(.data)
    ultra_distance                           0x2000a7f4   Data           4  ultrasonic.o(.data)
    ultra_distance_r                         0x2000a7f8   Data           4  ultrasonic.o(.data)
    ultra_delta                              0x2000a7fc   Data           4  ultrasonic.o(.data)
    ak8975                                   0x2000a814   Data          48  hml_sample.o(.data)
    fast_atan_table                          0x2000a844   Data        1028  my_math.o(.data)
    UKF_VEL_DELAY                            0x2000ac48   Data           4  nav_ukf.o(.data)
    UKF_POS_DELAY_UBM                        0x2000ac4c   Data           4  nav_ukf.o(.data)
    UKF_POS_DELAY                            0x2000ac50   Data           4  nav_ukf.o(.data)
    k_acc_ukf1                               0x2000ac54   Data           4  nav_ukf.o(.data)
    k_m_ukf                                  0x2000ac58   Data           4  nav_ukf.o(.data)
    IMU_MAG_DECL                             0x2000ac5c   Data           4  nav_ukf.o(.data)
    IMU_MAG_INCL                             0x2000ac60   Data           4  nav_ukf.o(.data)
    UKF_GPS_POS_N_TEMP                       0x2000ac64   Data           4  nav_ukf.o(.data)
    UKF_GPS_POS_N_TEMPD                      0x2000ac68   Data           4  nav_ukf.o(.data)
    NOISE_PRESS                              0x2000ac6c   Data           4  nav_ukf.o(.data)
    UKF_GPS_VEL_N_TEMP                       0x2000ac70   Data           4  nav_ukf.o(.data)
    UKF_GPS_VD_N_TEMP                        0x2000ac74   Data           4  nav_ukf.o(.data)
    UKF_GPS_VEL_N_TEMP_FLOW                  0x2000ac78   Data           4  nav_ukf.o(.data)
    UKF_GPS_VD_N_TEMP_FLOW                   0x2000ac7c   Data           4  nav_ukf.o(.data)
    UKF_MAG_N_TEMP                           0x2000ac80   Data           4  nav_ukf.o(.data)
    en_dop_gps                               0x2000ac84   Data           1  nav_ukf.o(.data)
    en_z_bais                                0x2000ac85   Data           1  nav_ukf.o(.data)
    dImuData_lastUpdate                      0x2000ac88   Data           4  nav_ukf.o(.data)
    navData_presAltOffset                    0x2000ac8c   Data           4  nav_ukf.o(.data)
    time_update                              0x2000ad40   Data           4  nav_ukf.o(.data)
    Kp                                       0x2000ad58   Data           4  imu.o(.data)
    Ki                                       0x2000ad5c   Data           4  imu.o(.data)
    Roll                                     0x2000ad60   Data           4  imu.o(.data)
    Pitch                                    0x2000ad64   Data           4  imu.o(.data)
    Yaw                                      0x2000ad68   Data           4  imu.o(.data)
    Roll_mid_down                            0x2000ad6c   Data           4  imu.o(.data)
    Pitch_mid_down                           0x2000ad70   Data           4  imu.o(.data)
    Yaw_mid_down                             0x2000ad74   Data           4  imu.o(.data)
    ref_q                                    0x2000ad78   Data          16  imu.o(.data)
    norm_acc                                 0x2000ad88   Data           4  imu.o(.data)
    norm_q                                   0x2000ad8c   Data           4  imu.o(.data)
    norm_acc_lpf                             0x2000ad90   Data           4  imu.o(.data)
    test_flag                                0x2000ad94   Data          12  imu.o(.data)
    mag_norm                                 0x2000ada0   Data           4  imu.o(.data)
    mag_norm_xyz                             0x2000ada4   Data           4  imu.o(.data)
    gh_yaw                                   0x2000ada8   Data           4  imu.o(.data)
    ga_yaw                                   0x2000adac   Data           4  imu.o(.data)
    gw_yaw                                   0x2000adb0   Data           4  imu.o(.data)
    yaw_kf                                   0x2000adb4   Data           4  imu.o(.data)
    P_kf_yaw                                 0x2000adb8   Data          32  imu.o(.data)
    k_kf_z                                   0x2000add8   Data           4  imu.o(.data)
    yaw_cross                                0x2000addc   Data           1  imu.o(.data)
    yaw_qr_off                               0x2000ade0   Data           4  imu.o(.data)
    dis_angle_lock                           0x2000ade4   Data           1  imu.o(.data)
    yaw_cal_by_qr                            0x2000ade5   Data           1  imu.o(.data)
    yaw_qr_off_local                         0x2000ade8   Data           4  imu.o(.data)
    yaw_off_earth                            0x2000adec   Data           4  imu.o(.data)
    ref_q_imd_down                           0x2000ae00   Data          16  imu_m.o(.data)
    beta                                     0x2000ae10   Data           4  imu_m.o(.data)
    q0_m                                     0x2000ae14   Data           4  imu_m.o(.data)
    q1_m                                     0x2000ae18   Data           4  imu_m.o(.data)
    q2_m                                     0x2000ae1c   Data           4  imu_m.o(.data)
    q3_m                                     0x2000ae20   Data           4  imu_m.o(.data)
    q0                                       0x2000ae24   Data           4  imu_m.o(.data)
    q1                                       0x2000ae28   Data           4  imu_m.o(.data)
    q2                                       0x2000ae2c   Data           4  imu_m.o(.data)
    q3                                       0x2000ae30   Data           4  imu_m.o(.data)
    q0_fc                                    0x2000ae34   Data           4  imu_m.o(.data)
    q1_fc                                    0x2000ae38   Data           4  imu_m.o(.data)
    q2_fc                                    0x2000ae3c   Data           4  imu_m.o(.data)
    q3_fc                                    0x2000ae40   Data           4  imu_m.o(.data)
    init_q                                   0x2000ae44   Data           1  imu_m.o(.data)
    beta_start                               0x2000ae48   Data           4  imu_m.o(.data)
    beta_end                                 0x2000ae4c   Data           4  imu_m.o(.data)
    beta_step                                0x2000ae50   Data           4  imu_m.o(.data)
    accConfidenceDecay                       0x2000ae54   Data           4  imu_m.o(.data)
    hmlConfidenceDecay                       0x2000ae58   Data           4  imu_m.o(.data)
    accConfidence                            0x2000ae5c   Data           4  imu_m.o(.data)
    hmlConfidence                            0x2000ae60   Data           4  imu_m.o(.data)
    norm_hml_view                            0x2000ae64   Data           4  imu_m.o(.data)
    hmlOneMAG                                0x2000ae68   Data           4  imu_m.o(.data)
    init_hml_norm                            0x2000ae6c   Data           1  imu_m.o(.data)
    init_hml_norm_cnt                        0x2000ae6e   Data           2  imu_m.o(.data)
    q_flow                                   0x2000ae80   Data          12  ukf_task.o(.data)
    r_flow                                   0x2000ae8c   Data          12  ukf_task.o(.data)
    flow_gain                                0x2000ae98   Data           4  ukf_task.o(.data)
    acc_flag_flow                            0x2000ae9c   Data           8  ukf_task.o(.data)
    X_ukf_Pos                                0x2000aea4   Data           8  ukf_task.o(.data)
    r1                                       0x2000aeac   Data           4  ukf_task.o(.data)
    r2                                       0x2000aeb0   Data           4  ukf_task.o(.data)
    posNorth                                 0x2000aeb4   Data           4  ukf_task.o(.data)
    posEast                                  0x2000aeb8   Data           4  ukf_task.o(.data)
    local_Lat                                0x2000aec0   Data           8  ukf_task.o(.data)
    local_Lon                                0x2000aec8   Data           8  ukf_task.o(.data)
    velEast                                  0x2000aed0   Data           4  ukf_task.o(.data)
    velNorth                                 0x2000aed4   Data           4  ukf_task.o(.data)
    GPS_J_F                                  0x2000aed8   Data           4  ukf_task.o(.data)
    GPS_W_F                                  0x2000aedc   Data           4  ukf_task.o(.data)
    kf_data_sel                              0x2000aee0   Data           1  ukf_task.o(.data)
    ga_nav                                   0x2000aee4   Data           4  ukf_task.o(.data)
    gwa_nav                                  0x2000aee8   Data           4  ukf_task.o(.data)
    g_pos_flow                               0x2000aeec   Data           4  ukf_task.o(.data)
    g_spd_flow                               0x2000aef0   Data           4  ukf_task.o(.data)
    K_pos_qr                                 0x2000aef4   Data           4  ukf_task.o(.data)
    K_spd_flow                               0x2000aef8   Data           4  ukf_task.o(.data)
    K_acc_gps                                0x2000aefc   Data           4  ukf_task.o(.data)
    K_pos_gps                                0x2000af00   Data           4  ukf_task.o(.data)
    K_spd_gps                                0x2000af04   Data           4  ukf_task.o(.data)
    g_pos_gps                                0x2000af08   Data           4  ukf_task.o(.data)
    g_spd_gps                                0x2000af0c   Data           4  ukf_task.o(.data)
    velNorth_gps                             0x2000af10   Data           4  ukf_task.o(.data)
    velEast_gps                              0x2000af14   Data           4  ukf_task.o(.data)
    flag_kf1                                 0x2000af18   Data           8  ukf_task.o(.data)
    force_test                               0x2000af20   Data           1  ukf_task.o(.data)
    Posx                                     0x2000af24   Data           4  ukf_task.o(.data)
    Posy                                     0x2000af28   Data           4  ukf_task.o(.data)
    gps_data_vaild                           0x2000af2c   Data           1  ukf_task.o(.data)
    gps_init                                 0x2000af2d   Data           1  ukf_task.o(.data)
    r_gps_new                                0x2000af30   Data          16  ukf_task.o(.data)
    altUkfData                               0x2000af68   Data           8  alt_kf.o(.data)
    altUkfData_sonar                         0x2000af70   Data           8  alt_kf.o(.data)
    altUkfData_bmp                           0x2000af78   Data           8  alt_kf.o(.data)
    flowUkfData_x                            0x2000af80   Data           8  alt_kf.o(.data)
    flowUkfData_y                            0x2000af88   Data           8  alt_kf.o(.data)
    gpsUkfData_e                             0x2000af90   Data           8  alt_kf.o(.data)
    gpsUkfData_n                             0x2000af98   Data           8  alt_kf.o(.data)
    heapUsed                                 0x2000afa0   Data           4  alt_kf.o(.data)
    heapHighWater                            0x2000afa4   Data           4  alt_kf.o(.data)
    dataSramUsed                             0x2000afa8   Data           4  alt_kf.o(.data)
    FLOW_NOISE                               0x2000afac   Data           4  alt_kf.o(.data)
    flow_pos                                 0x2000afb0   Data           8  alt_kf.o(.data)
    measure_num                              0x2000afb8   Data           1  alt_kf.o(.data)
    k_acc                                    0x2000afc0   Data           4  alt_kf.o(.data)
    sonar_av_cnt                             0x2000afc4   Data           2  alt_kf.o(.data)
    sonar_f_set                              0x2000afc8   Data          24  alt_kf.o(.data)
    ALT_PRES_NOISE                           0x2000afe0   Data           4  alt_kf.o(.data)
    ALT_PRES_NOISE_SONAR                     0x2000afe4   Data           4  alt_kf.o(.data)
    ALT_POS_SONAR2                           0x2000afe8   Data           4  alt_kf.o(.data)
    ALT_POS_SONAR3                           0x2000afec   Data           4  alt_kf.o(.data)
    sonar_h_cnt                              0x2000aff0   Data           4  alt_kf.o(.data)
    sonar_temp                               0x2000aff4   Data           4  alt_kf.o(.data)
    K_SONAR                                  0x2000aff8   Data           4  alt_kf.o(.data)
    test_1                                   0x2000affc   Data           2  alt_kf.o(.data)
    en_1                                     0x2000affe   Data           1  alt_kf.o(.data)
    NOISE                                    0x2000b000   Data          12  alt_kf.o(.data)
    X_apo_height1                            0x2000b00c   Data           8  alt_kf.o(.data)
    P_apo_k_height1                          0x2000b014   Data          16  alt_kf.o(.data)
    r_baro1                                  0x2000b024   Data           4  alt_kf.o(.data)
    r_acc1                                   0x2000b028   Data           4  alt_kf.o(.data)
    k_spd                                    0x2000b02c   Data           4  alt_kf.o(.data)
    gh                                       0x2000b030   Data           4  alt_kf.o(.data)
    gh_sonar                                 0x2000b034   Data           4  alt_kf.o(.data)
    ga                                       0x2000b038   Data           4  alt_kf.o(.data)
    gwa                                      0x2000b03c   Data           4  alt_kf.o(.data)
    P_kf_baro                                0x2000b040   Data          72  alt_kf.o(.data)
    P_kf_sonar                               0x2000b088   Data          72  alt_kf.o(.data)
    X_apo_height                             0x2000b0d0   Data           8  alt_kf.o(.data)
    P_apo_k_height                           0x2000b0d8   Data          16  alt_kf.o(.data)
    k_bais                                   0x2000b0e8   Data           4  alt_kf.o(.data)
    k_bais2                                  0x2000b0ec   Data           4  alt_kf.o(.data)
    r_baro                                   0x2000b0f0   Data           4  alt_kf.o(.data)
    r_acc                                    0x2000b0f4   Data           4  alt_kf.o(.data)
    gro_z_dead                               0x2000b0f8   Data           4  alt_kf.o(.data)
    dead_accz                                0x2000b0fc   Data           4  alt_kf.o(.data)
    acc_off_baro                             0x2000b100   Data           4  alt_kf.o(.data)
    k_hcc                                    0x2000b104   Data           4  alt_kf.o(.data)
    k_hcc_fix                                0x2000b108   Data           4  alt_kf.o(.data)
    hc_acc_i_bmp                             0x2000b10c   Data           4  alt_kf.o(.data)
    accz                                     0x2000b110   Data           4  alt_kf.o(.data)
    accz_bmp                                 0x2000b114   Data           4  alt_kf.o(.data)
    acc_scale_bmp                            0x2000b118   Data           4  alt_kf.o(.data)
    acc_mask                                 0x2000b11c   Data           1  alt_kf.o(.data)
    acc_mask_cnt_max                         0x2000b11e   Data           2  alt_kf.o(.data)
    baro_ukf_dt                              0x2000b120   Data           4  alt_kf.o(.data)
    baro_ekf_dt                              0x2000b124   Data           4  alt_kf.o(.data)
    k_flt_accz                               0x2000b128   Data           4  alt_kf.o(.data)
    acc_est                                  0x2000b12c   Data           4  alt_kf.o(.data)
    acc_est_imu                              0x2000b130   Data           4  alt_kf.o(.data)
    baro_ekf_ero                             0x2000b134   Data           1  alt_kf.o(.data)
    ALT_VEL_BMP_UNION                        0x2000b138   Data           4  alt_kf.o(.data)
    ALT_POS_BMP_UNION                        0x2000b13c   Data           4  alt_kf.o(.data)
    baroAlt_sel                              0x2000b140   Data           1  alt_kf.o(.data)
    r_baro_new                               0x2000b144   Data          16  alt_kf.o(.data)
    g_baro_h                                 0x2000b154   Data           4  alt_kf.o(.data)
    g_baro_spd                               0x2000b158   Data           4  alt_kf.o(.data)
    acc_flag                                 0x2000b15c   Data           8  alt_kf.o(.data)
    k_acc_ukf                                0x2000b164   Data           4  alt_kf.o(.data)
    MAX_ACC_NEO                              0x2000b168   Data           4  alt_kf.o(.data)
    flow_dt                                  0x2000b16c   Data           4  alt_kf.o(.data)
    GPS_NOISE                                0x2000b170   Data           4  alt_kf.o(.data)
    k_acc_fpl_gps                            0x2000b174   Data           4  alt_kf.o(.data)
    q_pos                                    0x2000b178   Data           4  alt_kf.o(.data)
    v_q                                      0x2000b17c   Data           4  alt_kf.o(.data)
    v_bais                                   0x2000b180   Data           4  alt_kf.o(.data)
    s_bais                                   0x2000b184   Data           4  alt_kf.o(.data)
    ALT_STATE_POS1                           0x2000b188   Data           4  alt_kf.o(.data)
    ALT_STATE_VEL1                           0x2000b18c   Data           4  alt_kf.o(.data)
    ALT_STATE_BIAS1                          0x2000b190   Data           4  alt_kf.o(.data)
    ALT_NOISE_BIAS1                          0x2000b194   Data           4  alt_kf.o(.data)
    ALT_NOISE_VEL1                           0x2000b198   Data           4  alt_kf.o(.data)
    ALT_STATE_POS_GPS                        0x2000b19c   Data           4  alt_kf.o(.data)
    ALT_STATE_VEL_GPS                        0x2000b1a0   Data           4  alt_kf.o(.data)
    ALT_STATE_BIAS_GPS                       0x2000b1a4   Data           4  alt_kf.o(.data)
    ALT_NOISE_BIAS_GPS                       0x2000b1a8   Data           4  alt_kf.o(.data)
    ALT_NOISE_VEL_GPS                        0x2000b1ac   Data           4  alt_kf.o(.data)
    k_flow_devide                            0x2000b1f0   Data           4  flow.o(.data)
    flow_module_offset_y                     0x2000b1f4   Data           4  flow.o(.data)
    flow_module_offset_x                     0x2000b1f8   Data           4  flow.o(.data)
    INNER_TASK_STK                           0x2000b250   Data        1536  ucos_task.o(.bss)
    OUTER_TASK_STK                           0x2000b850   Data        1024  ucos_task.o(.bss)
    EKF_TASK_STK                             0x2000bc50   Data       36864  ucos_task.o(.bss)
    BARO_TASK_STK                            0x20014c50   Data        3072  ucos_task.o(.bss)
    SONAR_TASK_STK                           0x20015850   Data         512  ucos_task.o(.bss)
    FLOW_TASK_STK                            0x20015a50   Data        1024  ucos_task.o(.bss)
    xBuf1                                    0x20015f40   Data          12  ucos_task.o(.bss)
    yBuf1                                    0x20015f4c   Data          12  ucos_task.o(.bss)
    xBuf2                                    0x20015f58   Data          12  ucos_task.o(.bss)
    yBuf2                                    0x20015f64   Data          12  ucos_task.o(.bss)
    xBuf3                                    0x20015f70   Data          12  ucos_task.o(.bss)
    yBuf3                                    0x20015f7c   Data          12  ucos_task.o(.bss)
    acc_neo                                  0x20015f88   Data          12  ucos_task.o(.bss)
    flow_ground_temp                         0x20015f94   Data          16  ucos_task.o(.bss)
    flow_matlab_data                         0x20015fa4   Data          16  ucos_task.o(.bss)
    ERROR_TASK_STK                           0x20015fb4   Data         256  ucos_task.o(.bss)
    START_TASK_STK                           0x200160fc   Data         256  main.o(.bss)
    MsgGrp                                   0x200161fc   Data        1024  main.o(.bss)
    module                                   0x200165fc   Data          11  main.o(.bss)
    mcuID                                    0x20016608   Data          12  main.o(.bss)
    OSEventTbl                               0x20016614   Data         200  os_core.o(.bss)
    OSFlagTbl                                0x200166dc   Data          80  os_core.o(.bss)
    OSTaskStatStk                            0x2001672c   Data         512  os_core.o(.bss)
    OSTaskIdleStk                            0x2001692c   Data         512  os_core.o(.bss)
    OSTCBPrioTbl                             0x20016b2c   Data         256  os_core.o(.bss)
    OSTCBTbl                                 0x20016c2c   Data        1848  os_core.o(.bss)
    OSQTbl                                   0x20017364   Data         120  os_core.o(.bss)
    OSTmrTbl                                 0x200173dc   Data         640  os_core.o(.bss)
    OSTmrTaskStk                             0x2001765c   Data         512  os_core.o(.bss)
    OSTmrWheelTbl                            0x2001785c   Data          64  os_core.o(.bss)
    FLASH_READ_BUF                           0x2001789c   Data         100  flash.o(.bss)
    FLASH_Buffer                             0x20017900   Data         100  flash.o(.bss)
    W25QXX_BUFFER                            0x20017964   Data        4096  flash_w25.o(.bss)
    Cycle_T                                  0x20018964   Data         360  time.o(.bss)
    qr                                       0x20018ad0   Data          60  usart_fc.o(.bss)
    color                                    0x20018b0c   Data          20  usart_fc.o(.bss)
    HPID                                     0x20018b20   Data          18  usart_fc.o(.bss)
    SPID                                     0x20018b32   Data          18  usart_fc.o(.bss)
    FIX_PID                                  0x20018b44   Data          18  usart_fc.o(.bss)
    NAV_PID                                  0x20018b56   Data          18  usart_fc.o(.bss)
    pid                                      0x20018b68   Data         224  usart_fc.o(.bss)
    Rc_Get                                   0x20018c48   Data          20  usart_fc.o(.bss)
    plane                                    0x20018c5c   Data         116  usart_fc.o(.bss)
    slam                                     0x20018cd0   Data          20  usart_fc.o(.bss)
    imu_nav                                  0x20018ce4   Data         104  usart_fc.o(.bss)
    mode                                     0x20018d4c   Data          53  usart_fc.o(.bss)
    flow_debug                               0x20018d84   Data          40  usart_fc.o(.bss)
    par                                      0x20018dac   Data          48  usart_fc.o(.bss)
    TxBuffer                                 0x20018ddc   Data         256  usart_fc.o(.bss)
    Rx_Buf                                   0x20018edc   Data         256  usart_fc.o(.bss)
    RxBuffer                                 0x20018fdc   Data          50  usart_fc.o(.bss)
    Tx5Buffer                                0x2001900e   Data         256  usart_fc.o(.bss)
    TxBuffer_u1                              0x2001910e   Data         256  usart_fc.o(.bss)
    Rx_Buf_u1                                0x2001920e   Data         256  usart_fc.o(.bss)
    RxBuffer_u1                              0x2001930e   Data          50  usart_fc.o(.bss)
    USART3_TX_BUF                            0x20019340   Data         800  usart_fc.o(.bss)
    USART3_RX_BUF                            0x20019660   Data         800  usart_fc.o(.bss)
    USART1_TX_BUF                            0x20019980   Data         800  usart_fc.o(.bss)
    gpsx                                     0x20019ca0   Data         323  usart_fc.o(.bss)
    buf_imu_dj                               0x20019de3   Data          20  usart_fc.o(.bss)
    angle_imu_dj                             0x20019df8   Data          12  usart_fc.o(.bss)
    RxBuffer11                               0x20019e04   Data          50  usart_fc.o(.bss)
    buf_GNVTG                                0x20019e36   Data          65  usart_fc.o(.bss)
    laser_buf                                0x20019e78   Data         720  usart_fc.o(.bss)
    m100                                     0x2001a148   Data          96  usart_fc.o(.bss)
    debug_pi_flow                            0x2001a1a8   Data          80  usart_fc.o(.bss)
    pi_flow                                  0x2001a1f8   Data         340  usart_fc.o(.bss)
    RxBuffer4_test                           0x2001a34c   Data          25  usart_fc.o(.bss)
    RxBuffer4                                0x2001a365   Data          50  usart_fc.o(.bss)
    Rx_Buf3                                  0x2001a397   Data         256  usart_fc.o(.bss)
    RxBuffer3                                0x2001a497   Data          50  usart_fc.o(.bss)
    SendBuff1                                0x2001a4c9   Data          64  usart_fc.o(.bss)
    SendBuff2                                0x2001a509   Data         384  usart_fc.o(.bss)
    SendBuff3                                0x2001a689   Data          32  usart_fc.o(.bss)
    SendBuff4                                0x2001a6a9   Data          64  usart_fc.o(.bss)
    flow                                     0x2001a6f0   Data         112  usart_fc.o(.bss)
    flow_rad                                 0x2001a760   Data          48  usart_fc.o(.bss)
    lis3mdl                                  0x2001a8e0   Data         292  lis3mdl.o(.bss)
    acc_lsq                                  0x2001aa04   Data         168  lis3mdl.o(.bss)
    sum_temp                                 0x2001aaac   Data          28  lis3mdl.o(.bss)
    sum_temp_3d                              0x2001aac8   Data          28  lis3mdl.o(.bss)
    mpu6050                                  0x2001b210   Data         188  mpu6050.o(.bss)
    mpu6050_r                                0x2001b2cc   Data         188  mpu6050.o(.bss)
    imu_fushion                              0x2001b388   Data         188  mpu6050.o(.bss)
    med_filter_tmp                           0x2001b444   Data        2800  fliter.o(.bss)
    med_filter_out                           0x2001bf34   Data         140  fliter.o(.bss)
    med_fil_cnt                              0x2001bfc0   Data          35  fliter.o(.bss)
    firstOrderFilters                        0x2001bfe4   Data         400  fliter.o(.bss)
    LF_20Hz                                  0x2001c174   Data          24  fliter.o(.bss)
    Acc_20Hz                                 0x2001c18c   Data          72  fliter.o(.bss)
    now_dj                                   0x2001c1d4   Data          16  ultrasonic.o(.bss)
    lastUpdate_dj                            0x2001c1e4   Data          16  ultrasonic.o(.bss)
    navUkfData                               0x2001c1f8   Data        2080  nav_ukf.o(.bss)
    runData                                  0x2001cc28   Data         328  nav_ukf.o(.bss)
    q_nav                                    0x2001cd98   Data          16  imu.o(.bss)
    reference_v                              0x2001cda8   Data          12  imu.o(.bss)
    ref                                      0x2001cdb4   Data          60  imu.o(.bss)
    reference_vr                             0x2001cdf0   Data          12  imu.o(.bss)
    mag_sim_3d                               0x2001cdfc   Data          12  imu.o(.bss)
    acc_3d_hg                                0x2001ce08   Data          12  imu.o(.bss)
    acc_ng                                   0x2001ce14   Data          12  imu.o(.bss)
    acc_ng_offset                            0x2001ce20   Data          12  imu.o(.bss)
    yaw_mag_view                             0x2001ce2c   Data          20  imu.o(.bss)
    X_kf_yaw                                 0x2001ce40   Data          16  imu.o(.bss)
    reference_vr_imd_down                    0x2001ce5c   Data          12  imu_m.o(.bss)
    reference_vr_imd_down_fc                 0x2001ce68   Data          12  imu_m.o(.bss)
    X_ukf                                    0x2001ce78   Data          48  ukf_task.o(.bss)
    X_ukf_global                             0x2001cea8   Data          48  ukf_task.o(.bss)
    X_ukf_baro                               0x2001ced8   Data          48  ukf_task.o(.bss)
    X_KF_NAV                                 0x2001d048   Data          48  ukf_task.o(.bss)
    P_KF_NAV                                 0x2001d078   Data         144  ukf_task.o(.bss)
    state_correct_posx                       0x2001d108   Data          48  ukf_task.o(.bss)
    state_correct_posy                       0x2001d138   Data          48  ukf_task.o(.bss)
    X_kf2_x                                  0x2001d168   Data          24  ukf_task.o(.bss)
    X_kf2_y                                  0x2001d180   Data          24  ukf_task.o(.bss)
    Distance                                 0x2001d198   Data         100  alt_kf.o(.bss)
    ultra                                    0x2001d208   Data          20  alt_kf.o(.bss)
    sonar_av_arr                             0x2001d21c   Data          20  alt_kf.o(.bss)
    sonar                                    0x2001d230   Data          24  alt_kf.o(.bss)
    sonar_fusion                             0x2001d248   Data          68  alt_kf.o(.bss)
    sonar_h_arr                              0x2001d28c   Data          44  alt_kf.o(.bss)
    X_kf_baro                                0x2001d2b8   Data          24  alt_kf.o(.bss)
    X_kf_baro_temp                           0x2001d2d0   Data          24  alt_kf.o(.bss)
    X_kf_sonar                               0x2001d2e8   Data          24  alt_kf.o(.bss)
    acc_z_view                               0x2001d3a0   Data          12  alt_kf.o(.bss)
    state_correct_baro                       0x2001d3b0   Data          48  alt_kf.o(.bss)
    Global_GPS_Sensor                        0x2001d3e0   Data          88  alt_kf.o(.bss)
    v_test                                   0x2001d438   Data          16  alt_kf.o(.bss)
    Last_GPS                                 0x2001d448   Data          16  alt_kf.o(.bss)
    TAR_GPS                                  0x2001d458   Data          16  alt_kf.o(.bss)
    hml_lsq                                  0x2001d468   Data         168  cycle_cal_oldx.o(.bss)
    flow_per_out                             0x2001d568   Data          16  flow.o(.bss)
    __libspace_start                         0x2001d59c   Data          96  libspace.o(.bss)
    __temporary_stack_top$libspace           0x2001d5fc   Data           0  libspace.o(.bss)



==============================================================================

Memory Map of the image

  Image Entry point : 0x08000189

  Load Region LR_IROM1 (Base: 0x08000000, Size: 0x00033b40, Max: 0x00100000, ABSOLUTE, COMPRESSED[0x000293d4])

    Execution Region ER_IROM1 (Base: 0x08000000, Size: 0x000288f0, Max: 0x00100000, ABSOLUTE)

    Base Addr    Size         Type   Attr      Idx    E Section Name        Object

    0x08000000   0x00000188   Data   RO          610    RESET               startup_stm32f40_41xxx.o
    0x08000188   0x00000008   Code   RO         2205  * !!!main             c_w.l(__main.o)
    0x08000190   0x00000034   Code   RO         2720    !!!scatter          c_w.l(__scatter.o)
    0x080001c4   0x0000005a   Code   RO         2718    !!dczerorl2         c_w.l(__dczerorl2.o)
    0x0800021e   0x00000002   PAD
    0x08000220   0x0000001c   Code   RO         2722    !!handler_zi        c_w.l(__scatter_zi.o)
    0x0800023c   0x00000002   Code   RO         2640    .ARM.Collect$$libinit$$00000000  c_w.l(libinit.o)
    0x0800023e   0x00000004   Code   RO         2568    .ARM.Collect$$libinit$$00000001  c_w.l(libinit2.o)
    0x08000242   0x00000000   Code   RO         2571    .ARM.Collect$$libinit$$00000004  c_w.l(libinit2.o)
    0x08000242   0x00000000   Code   RO         2574    .ARM.Collect$$libinit$$0000000A  c_w.l(libinit2.o)
    0x08000242   0x00000000   Code   RO         2576    .ARM.Collect$$libinit$$0000000C  c_w.l(libinit2.o)
    0x08000242   0x00000000   Code   RO         2578    .ARM.Collect$$libinit$$0000000E  c_w.l(libinit2.o)
    0x08000242   0x00000000   Code   RO         2581    .ARM.Collect$$libinit$$00000011  c_w.l(libinit2.o)
    0x08000242   0x00000000   Code   RO         2583    .ARM.Collect$$libinit$$00000013  c_w.l(libinit2.o)
    0x08000242   0x00000000   Code   RO         2585    .ARM.Collect$$libinit$$00000015  c_w.l(libinit2.o)
    0x08000242   0x00000000   Code   RO         2587    .ARM.Collect$$libinit$$00000017  c_w.l(libinit2.o)
    0x08000242   0x00000000   Code   RO         2589    .ARM.Collect$$libinit$$00000019  c_w.l(libinit2.o)
    0x08000242   0x00000000   Code   RO         2591    .ARM.Collect$$libinit$$0000001B  c_w.l(libinit2.o)
    0x08000242   0x00000000   Code   RO         2593    .ARM.Collect$$libinit$$0000001D  c_w.l(libinit2.o)
    0x08000242   0x00000000   Code   RO         2595    .ARM.Collect$$libinit$$0000001F  c_w.l(libinit2.o)
    0x08000242   0x00000000   Code   RO         2597    .ARM.Collect$$libinit$$00000021  c_w.l(libinit2.o)
    0x08000242   0x00000000   Code   RO         2599    .ARM.Collect$$libinit$$00000023  c_w.l(libinit2.o)
    0x08000242   0x00000000   Code   RO         2601    .ARM.Collect$$libinit$$00000025  c_w.l(libinit2.o)
    0x08000242   0x00000000   Code   RO         2605    .ARM.Collect$$libinit$$0000002C  c_w.l(libinit2.o)
    0x08000242   0x00000000   Code   RO         2607    .ARM.Collect$$libinit$$0000002E  c_w.l(libinit2.o)
    0x08000242   0x00000000   Code   RO         2609    .ARM.Collect$$libinit$$00000030  c_w.l(libinit2.o)
    0x08000242   0x00000000   Code   RO         2611    .ARM.Collect$$libinit$$00000032  c_w.l(libinit2.o)
    0x08000242   0x00000002   Code   RO         2612    .ARM.Collect$$libinit$$00000033  c_w.l(libinit2.o)
    0x08000244   0x00000002   Code   RO         2715    .ARM.Collect$$libshutdown$$00000000  c_w.l(libshutdown.o)
    0x08000246   0x00000000   Code   RO         2669    .ARM.Collect$$libshutdown$$00000002  c_w.l(libshutdown2.o)
    0x08000246   0x00000000   Code   RO         2671    .ARM.Collect$$libshutdown$$00000004  c_w.l(libshutdown2.o)
    0x08000246   0x00000000   Code   RO         2674    .ARM.Collect$$libshutdown$$00000007  c_w.l(libshutdown2.o)
    0x08000246   0x00000000   Code   RO         2677    .ARM.Collect$$libshutdown$$0000000A  c_w.l(libshutdown2.o)
    0x08000246   0x00000000   Code   RO         2679    .ARM.Collect$$libshutdown$$0000000C  c_w.l(libshutdown2.o)
    0x08000246   0x00000000   Code   RO         2682    .ARM.Collect$$libshutdown$$0000000F  c_w.l(libshutdown2.o)
    0x08000246   0x00000002   Code   RO         2683    .ARM.Collect$$libshutdown$$00000010  c_w.l(libshutdown2.o)
    0x08000248   0x00000000   Code   RO         2409    .ARM.Collect$$rtentry$$00000000  c_w.l(__rtentry.o)
    0x08000248   0x00000000   Code   RO         2526    .ARM.Collect$$rtentry$$00000002  c_w.l(__rtentry2.o)
    0x08000248   0x00000006   Code   RO         2538    .ARM.Collect$$rtentry$$00000004  c_w.l(__rtentry4.o)
    0x0800024e   0x00000000   Code   RO         2528    .ARM.Collect$$rtentry$$00000009  c_w.l(__rtentry2.o)
    0x0800024e   0x00000004   Code   RO         2529    .ARM.Collect$$rtentry$$0000000A  c_w.l(__rtentry2.o)
    0x08000252   0x00000000   Code   RO         2531    .ARM.Collect$$rtentry$$0000000C  c_w.l(__rtentry2.o)
    0x08000252   0x00000008   Code   RO         2532    .ARM.Collect$$rtentry$$0000000D  c_w.l(__rtentry2.o)
    0x0800025a   0x00000002   Code   RO         2650    .ARM.Collect$$rtexit$$00000000  c_w.l(rtexit.o)
    0x0800025c   0x00000000   Code   RO         2689    .ARM.Collect$$rtexit$$00000002  c_w.l(rtexit2.o)
    0x0800025c   0x00000004   Code   RO         2690    .ARM.Collect$$rtexit$$00000003  c_w.l(rtexit2.o)
    0x08000260   0x00000006   Code   RO         2691    .ARM.Collect$$rtexit$$00000004  c_w.l(rtexit2.o)
    0x08000266   0x00000002   PAD
    0x08000268   0x00002990   Code   RO            3    .text               ucos_task.o
    0x08002bf8   0x00000290   Code   RO          375    .text               main.o
    0x08002e88   0x00000100   Code   RO          475    .text               rt_nonfinite.o
    0x08002f88   0x000000c8   Code   RO          505    .text               rtgetnan.o
    0x08003050   0x00000134   Code   RO          521    .text               rtgetinf.o
    0x08003184   0x00000016   Code   RO          535    .text               stm32f4xx_it.o
    0x0800319a   0x00000002   PAD
    0x0800319c   0x00000210   Code   RO          584    .text               system_stm32f4xx.o
    0x080033ac   0x00000040   Code   RO          611    .text               startup_stm32f40_41xxx.o
    0x080033ec   0x00000108   Code   RO          617    .text               delay.o
    0x080034f4   0x000000e0   Code   RO          657    .text               misc.o
    0x080035d4   0x00000294   Code   RO          677    .text               stm32f4xx_gpio.o
    0x08003868   0x0000065c   Code   RO          720    .text               stm32f4xx_rcc.o
    0x08003ec4   0x00000094   Code   RO          742    .text               stm32f4xx_syscfg.o
    0x08003f58   0x00000454   Code   RO          762    .text               stm32f4xx_usart.o
    0x080043ac   0x00000ca2   Code   RO          782    .text               stm32f4xx_tim.o
    0x0800504e   0x00000002   PAD
    0x08005050   0x00000694   Code   RO          802    .text               stm32f4xx_flash.o
    0x080056e4   0x00000110   Code   RO          822    .text               stm32f4xx_exti.o
    0x080057f4   0x00000480   Code   RO          862    .text               stm32f4xx_spi.o
    0x08005c74   0x000003a8   Code   RO          882    .text               stm32f4xx_dma.o
    0x0800601c   0x00000040   Code   RO          922    .text               stm32f4xx_iwdg.o
    0x0800605c   0x00000894   Code   RO          962    .text               os_core.o
    0x080068f0   0x0000080c   Code   RO          990    .text               os_flag.o
    0x080070fc   0x000003cc   Code   RO         1010    .text               os_mbox.o
    0x080074c8   0x000005e8   Code   RO         1064    .text               os_q.o
    0x08007ab0   0x0000038c   Code   RO         1084    .text               os_sem.o
    0x08007e3c   0x000007c4   Code   RO         1104    .text               os_task.o
    0x08008600   0x000001b0   Code   RO         1124    .text               os_time.o
    0x080087b0   0x00000634   Code   RO         1144    .text               os_tmr.o
    0x08008de4   0x000000c8   Code   RO         1162    .text               os_cpu_a.o
    0x08008eac   0x000001e8   Code   RO         1167    .text               os_cpu_c.o
    0x08009094   0x00000458   Code   RO         1217    .text               iic1.o
    0x080094ec   0x000003a8   Code   RO         1263    .text               iic_soft.o
    0x08009894   0x000006d4   Code   RO         1289    .text               led_fc.o
    0x08009f68   0x00000f24   Code   RO         1318    .text               flash.o
    0x0800ae8c   0x00000478   Code   RO         1342    .text               flash_w25.o
    0x0800b304   0x00000268   Code   RO         1373    .text               time.o
    0x0800b56c   0x000000e8   Code   RO         1404    .text               dma.o
    0x0800b654   0x0000002c   Code   RO         1424    .text               watch_dog.o
    0x0800b680   0x00000904   Code   RO         1444    .text               gps.o
    0x0800bf84   0x00007f78   Code   RO         1468    .text               usart_fc.o
    0x08013efc   0x00002078   Code   RO         1530    .text               lis3mdl.o
    0x08015f74   0x000000a8   Code   RO         1561    .text               mpu6050.o
    0x0801601c   0x00000910   Code   RO         1615    .text               fliter.o
    0x0801692c   0x000009d0   Code   RO         1645    .text               ultrasonic.o
    0x080172fc   0x00000784   Code   RO         1715    .text               my_math.o
    0x08017a80   0x00001404   Code   RO         1736    .text               kf_oldx_nav.o
    0x08018e84   0x0000400c   Code   RO         1767    .text               nav_ukf.o
    0x0801ce90   0x00001000   Code   RO         1835    .text               imu_m.o
    0x0801de90   0x00001ecc   Code   RO         1867    .text               ukf_task.o
    0x0801fd5c   0x00002fe8   Code   RO         1913    .text               alt_kf.o
    0x08022d44   0x00000100   Code   RO         1980    .text               arm_cortexM4lf_math.lib(arm_std_f32.o)
    0x08022e44   0x00000a18   Code   RO         2024    .text               cycle_cal_oldx.lib(cycle_cal_oldx.o)
    0x0802385c   0x00000b54   Code   RO         2115    .text               flow_oldx.lib(flow.o)
    0x080243b0   0x0000004e   Code   RO         2141    .text               c_w.l(h1_free.o)
    0x080243fe   0x00000024   Code   RO         2197    .text               c_w.l(strstr.o)
    0x08024422   0x00000064   Code   RO         2199    .text               c_w.l(rt_memcpy_w.o)
    0x08024486   0x0000004e   Code   RO         2201    .text               c_w.l(rt_memclr_w.o)
    0x080244d4   0x00000006   Code   RO         2203    .text               c_w.l(heapauxi.o)
    0x080244da   0x00000002   PAD
    0x080244dc   0x00000008   Code   RO         2413    .text               c_w.l(rt_heap_descriptor_intlibspace.o)
    0x080244e4   0x00000016   Code   RO         2439    .text               c_w.l(_rserrno.o)
    0x080244fa   0x00000002   PAD
    0x080244fc   0x00000008   Code   RO         2522    .text               c_w.l(libspace.o)
    0x08024504   0x00000008   Code   RO         2547    .text               c_w.l(rt_errno_addr_intlibspace.o)
    0x0802450c   0x0000004a   Code   RO         2617    .text               c_w.l(sys_stackheap_outer.o)
    0x08024556   0x00000012   Code   RO         2627    .text               c_w.l(exit.o)
    0x08024568   0x0000000c   Code   RO         2645    .text               c_w.l(sys_exit.o)
    0x08024574   0x00000002   Code   RO         2647    .text               c_w.l(use_no_semi.o)
    0x08024576   0x00000000   Code   RO         2649    .text               c_w.l(indicate_semi.o)
    0x08024576   0x00000030   Code   RO         2475    i.__ARM_fpclassify  m_wm.l(fpclassify.o)
    0x080245a6   0x00000026   Code   RO         2477    i.__ARM_fpclassifyf  m_wm.l(fpclassifyf.o)
    0x080245cc   0x00000004   PAD
    0x080245d0   0x00000358   Code   RO         2243    i.__hardfp_acos     m_wm.l(acos.o)
    0x08024928   0x00000360   Code   RO         2257    i.__hardfp_asin     m_wm.l(asin.o)
    0x08024c88   0x0000012c   Code   RO         2271    i.__hardfp_asinf    m_wm.l(asinf.o)
    0x08024db4   0x00000250   Code   RO         2283    i.__hardfp_atan2f   m_wm.l(atan2f.o)
    0x08025004   0x00000160   Code   RO         2295    i.__hardfp_atanf    m_wm.l(atanf.o)
    0x08025164   0x00000004   PAD
    0x08025168   0x000000c8   Code   RO         2307    i.__hardfp_cos      m_wm.l(cos.o)
    0x08025230   0x00000150   Code   RO         2319    i.__hardfp_cosf     m_wm.l(cosf.o)
    0x08025380   0x00000014   Code   RO         2331    i.__hardfp_fabs     m_wm.l(fabs.o)
    0x08025394   0x00000004   PAD
    0x08025398   0x00000118   Code   RO         2337    i.__hardfp_floor    m_wm.l(floor.o)
    0x080254b0   0x00000c50   Code   RO         2343    i.__hardfp_pow      m_wm.l(pow.o)
    0x08026100   0x00000664   Code   RO         2357    i.__hardfp_powf     m_wm.l(powf.o)
    0x08026764   0x00000004   PAD
    0x08026768   0x000000c8   Code   RO         2371    i.__hardfp_sin      m_wm.l(sin.o)
    0x08026830   0x00000190   Code   RO         2383    i.__hardfp_sinf     m_wm.l(sinf.o)
    0x080269c0   0x0000007a   Code   RO         2395    i.__hardfp_sqrt     m_wm.l(sqrt.o)
    0x08026a3a   0x00000006   PAD
    0x08026a40   0x00000438   Code   RO         2496    i.__ieee754_rem_pio2  m_wm.l(rred.o)
    0x08026e78   0x00000170   Code   RO         2458    i.__kernel_cos      m_wm.l(cos_i.o)
    0x08026fe8   0x000000f8   Code   RO         2493    i.__kernel_poly     m_wm.l(poly.o)
    0x080270e0   0x00000130   Code   RO         2504    i.__kernel_sin      m_wm.l(sin_i.o)
    0x08027210   0x00000030   Code   RO         2461    i.__mathlib_dbl_divzero  m_wm.l(dunder.o)
    0x08027240   0x00000014   Code   RO         2462    i.__mathlib_dbl_infnan  m_wm.l(dunder.o)
    0x08027254   0x00000014   Code   RO         2463    i.__mathlib_dbl_infnan2  m_wm.l(dunder.o)
    0x08027268   0x00000020   Code   RO         2464    i.__mathlib_dbl_invalid  m_wm.l(dunder.o)
    0x08027288   0x00000020   Code   RO         2465    i.__mathlib_dbl_overflow  m_wm.l(dunder.o)
    0x080272a8   0x00000020   Code   RO         2467    i.__mathlib_dbl_underflow  m_wm.l(dunder.o)
    0x080272c8   0x00000014   Code   RO         2479    i.__mathlib_flt_divzero  m_wm.l(funder.o)
    0x080272dc   0x00000006   Code   RO         2480    i.__mathlib_flt_infnan  m_wm.l(funder.o)
    0x080272e2   0x00000006   Code   RO         2481    i.__mathlib_flt_infnan2  m_wm.l(funder.o)
    0x080272e8   0x00000010   Code   RO         2482    i.__mathlib_flt_invalid  m_wm.l(funder.o)
    0x080272f8   0x00000010   Code   RO         2483    i.__mathlib_flt_overflow  m_wm.l(funder.o)
    0x08027308   0x00000010   Code   RO         2485    i.__mathlib_flt_underflow  m_wm.l(funder.o)
    0x08027318   0x00000154   Code   RO         2501    i.__mathlib_rredf2  m_wm.l(rredf.o)
    0x0802746c   0x00000018   Code   RO         2333    i.fabs              m_wm.l(fabs.o)
    0x08027484   0x0000006e   Code   RO         2397    i.sqrt              m_wm.l(sqrt.o)
    0x080274f2   0x0000003e   Code   RO         2512    i.sqrtf             m_wm.l(sqrtf.o)
    0x08027530   0x00000018   Code   RO         2207    x$fpl$basic         fz_wm.l(basic.o)
    0x08027548   0x00000062   Code   RO         2209    x$fpl$d2f           fz_wm.l(d2f.o)
    0x080275aa   0x00000002   PAD
    0x080275ac   0x00000150   Code   RO         2211    x$fpl$dadd          fz_wm.l(daddsub_clz.o)
    0x080276fc   0x00000010   Code   RO         2613    x$fpl$dcheck1       fz_wm.l(dcheck1.o)
    0x0802770c   0x00000018   Code   RO         2441    x$fpl$dcmpinf       fz_wm.l(dcmpi.o)
    0x08027724   0x000002b0   Code   RO         2218    x$fpl$ddiv          fz_wm.l(ddiv.o)
    0x080279d4   0x00000078   Code   RO         2221    x$fpl$deqf          fz_wm.l(deqf.o)
    0x08027a4c   0x0000005e   Code   RO         2223    x$fpl$dfix          fz_wm.l(dfix.o)
    0x08027aaa   0x0000002e   Code   RO         2228    x$fpl$dflt          fz_wm.l(dflt_clz.o)
    0x08027ad8   0x00000026   Code   RO         2227    x$fpl$dfltu         fz_wm.l(dflt_clz.o)
    0x08027afe   0x00000002   PAD
    0x08027b00   0x00000078   Code   RO         2233    x$fpl$dleqf         fz_wm.l(dleqf.o)
    0x08027b78   0x00000154   Code   RO         2235    x$fpl$dmul          fz_wm.l(dmul.o)
    0x08027ccc   0x0000009c   Code   RO         2443    x$fpl$dnaninf       fz_wm.l(dnaninf.o)
    0x08027d68   0x0000000c   Code   RO         2445    x$fpl$dretinf       fz_wm.l(dretinf.o)
    0x08027d74   0x0000006c   Code   RO         2237    x$fpl$drleqf        fz_wm.l(drleqf.o)
    0x08027de0   0x00000016   Code   RO         2212    x$fpl$drsb          fz_wm.l(daddsub_clz.o)
    0x08027df6   0x00000002   PAD
    0x08027df8   0x00000198   Code   RO         2447    x$fpl$dsqrt         fz_wm.l(dsqrt_umaal.o)
    0x08027f90   0x000001d4   Code   RO         2213    x$fpl$dsub          fz_wm.l(daddsub_clz.o)
    0x08028164   0x00000056   Code   RO         2239    x$fpl$f2d           fz_wm.l(f2d.o)
    0x080281ba   0x0000008c   Code   RO         2449    x$fpl$fnaninf       fz_wm.l(fnaninf.o)
    0x08028246   0x0000000a   Code   RO         2641    x$fpl$fpinit        fz_wm.l(fpinit.o)
    0x08028250   0x0000000a   Code   RO         2451    x$fpl$fretinf       fz_wm.l(fretinf.o)
    0x0802825a   0x00000064   Code   RO         2643    x$fpl$retnan        fz_wm.l(retnan.o)
    0x080282be   0x0000005c   Code   RO         2455    x$fpl$scalbn        fz_wm.l(scalbn.o)
    0x0802831a   0x00000030   Code   RO         2684    x$fpl$trapveneer    fz_wm.l(trapv.o)
    0x0802834a   0x00000000   Code   RO         2457    x$fpl$usenofp       fz_wm.l(usenofp.o)
    0x0802834a   0x00000100   Data   RO          964    .constdata          os_core.o
    0x0802844a   0x00000006   PAD
    0x08028450   0x0000003c   Data   RO         1737    .constdata          kf_oldx_nav.o
    0x0802848c   0x00000004   PAD
    0x08028490   0x00000090   Data   RO         1869    .constdata          ukf_task.o
    0x08028520   0x00000050   Data   RO         2246    .constdata          m_wm.l(acos.o)
    0x08028570   0x00000050   Data   RO         2260    .constdata          m_wm.l(asin.o)
    0x080285c0   0x00000088   Data   RO         2346    .constdata          m_wm.l(pow.o)
    0x08028648   0x00000140   Data   RO         2360    .constdata          m_wm.l(powf.o)
    0x08028788   0x00000030   Data   RO         2459    .constdata          m_wm.l(cos_i.o)
    0x080287b8   0x00000008   Data   RO         2495    .constdata          m_wm.l(qnan.o)
    0x080287c0   0x000000c8   Data   RO         2498    .constdata          m_wm.l(rred.o)
    0x08028888   0x00000020   Data   RO         2502    .constdata          m_wm.l(rredf.o)
    0x080288a8   0x00000028   Data   RO         2505    .constdata          m_wm.l(sin_i.o)
    0x080288d0   0x00000020   Data   RO         2716    Region$$Table       anon$$obj.o


    Execution Region RW_IRAM1 (Base: 0x20000000, Size: 0x0001dc00, Max: 0x00020000, ABSOLUTE, COMPRESSED[0x00000ae4])

    Base Addr    Size         Type   Attr      Idx    E Section Name        Object

    0x20000000   0x0000a000   Data   RW         1915    .ccm                alt_kf.o
    0x2000a000   0x00000134   Data   RW            5    .data               ucos_task.o
    0x2000a134   0x00000010   Data   RW          377    .data               main.o
    0x2000a144   0x00000018   Data   RW          452    .data               error.o
    0x2000a15c   0x00000004   PAD
    0x2000a160   0x00000024   Data   RW          476    .data               rt_nonfinite.o
    0x2000a184   0x00000014   Data   RW          585    .data               system_stm32f4xx.o
    0x2000a198   0x00000004   Data   RW          618    .data               delay.o
    0x2000a19c   0x00000010   Data   RW          721    .data               stm32f4xx_rcc.o
    0x2000a1ac   0x0000005c   Data   RW          965    .data               os_core.o
    0x2000a208   0x00000006   Data   RW         1168    .data               os_cpu_c.o
    0x2000a20e   0x00000001   Data   RW         1264    .data               iic_soft.o
    0x2000a20f   0x00000001   PAD
    0x2000a210   0x00000008   Data   RW         1290    .data               led_fc.o
    0x2000a218   0x00000004   Data   RW         1320    .data               flash.o
    0x2000a21c   0x00000002   Data   RW         1344    .data               flash_w25.o
    0x2000a21e   0x00000002   PAD
    0x2000a220   0x00000008   Data   RW         1446    .data               gps.o
    0x2000a228   0x00000256   Data   RW         1470    .data               usart_fc.o
    0x2000a47e   0x00000002   PAD
    0x2000a480   0x0000026f   Data   RW         1532    .data               lis3mdl.o
    0x2000a6ef   0x00000001   PAD
    0x2000a6f0   0x0000007d   Data   RW         1590    .data               ms5611_2.o
    0x2000a76d   0x00000003   PAD
    0x2000a770   0x00000014   Data   RW         1617    .data               fliter.o
    0x2000a784   0x00000004   PAD
    0x2000a788   0x0000008c   Data   RW         1647    .data               ultrasonic.o
    0x2000a814   0x00000030   Data   RW         1675    .data               hml_sample.o
    0x2000a844   0x00000404   Data   RW         1716    .data               my_math.o
    0x2000ac48   0x0000010f   Data   RW         1769    .data               nav_ukf.o
    0x2000ad57   0x00000001   PAD
    0x2000ad58   0x000000a6   Data   RW         1796    .data               imu.o
    0x2000adfe   0x00000002   PAD
    0x2000ae00   0x00000079   Data   RW         1837    .data               imu_m.o
    0x2000ae79   0x00000007   PAD
    0x2000ae80   0x000000e5   Data   RW         1870    .data               ukf_task.o
    0x2000af65   0x00000003   PAD
    0x2000af68   0x00000282   Data   RW         1916    .data               alt_kf.o
    0x2000b1ea   0x00000002   PAD
    0x2000b1ec   0x00000061   Data   RW         2117    .data               flow_oldx.lib(flow.o)
    0x2000b24d   0x00000003   PAD
    0x2000b250   0x0000aeac   Zero   RW            4    .bss                ucos_task.o
    0x200160fc   0x00000518   Zero   RW          376    .bss                main.o
    0x20016614   0x00001288   Zero   RW          963    .bss                os_core.o
    0x2001789c   0x000000c8   Zero   RW         1319    .bss                flash.o
    0x20017964   0x00001000   Zero   RW         1343    .bss                flash_w25.o
    0x20018964   0x00000168   Zero   RW         1374    .bss                time.o
    0x20018acc   0x00000004   PAD
    0x20018ad0   0x00001e0c   Zero   RW         1469    .bss                usart_fc.o
    0x2001a8dc   0x00000004   PAD
    0x2001a8e0   0x00000930   Zero   RW         1531    .bss                lis3mdl.o
    0x2001b210   0x00000234   Zero   RW         1562    .bss                mpu6050.o
    0x2001b444   0x00000d90   Zero   RW         1616    .bss                fliter.o
    0x2001c1d4   0x00000020   Zero   RW         1646    .bss                ultrasonic.o
    0x2001c1f4   0x00000004   PAD
    0x2001c1f8   0x00000b9c   Zero   RW         1768    .bss                nav_ukf.o
    0x2001cd94   0x00000004   PAD
    0x2001cd98   0x000000c4   Zero   RW         1795    .bss                imu.o
    0x2001ce5c   0x00000018   Zero   RW         1836    .bss                imu_m.o
    0x2001ce74   0x00000004   PAD
    0x2001ce78   0x00000320   Zero   RW         1868    .bss                ukf_task.o
    0x2001d198   0x000002d0   Zero   RW         1914    .bss                alt_kf.o
    0x2001d468   0x000000a8   Zero   RW         2025    .bss                cycle_cal_oldx.lib(cycle_cal_oldx.o)
    0x2001d510   0x0000008c   Zero   RW         2116    .bss                flow_oldx.lib(flow.o)
    0x2001d59c   0x00000060   Zero   RW         2523    .bss                c_w.l(libspace.o)
    0x2001d5fc   0x00000004   PAD
    0x2001d600   0x00000200   Zero   RW          609    HEAP                startup_stm32f40_41xxx.o
    0x2001d800   0x00000400   Zero   RW          608    STACK               startup_stm32f40_41xxx.o


==============================================================================

Image component sizes


      Code (inc. data)   RO Data    RW Data    ZI Data      Debug   Object Name

     12264        696          0      41602        720      40975   alt_kf.o
       264         18          0          4          0       1491   delay.o
       232          4          0          0          0       1540   dma.o
         0          0          0         24          0       2376   error.o
      3876        166          0          4        200       3735   flash.o
      1144         36          0          2       4096       5392   flash_w25.o
      2320        104          0         20       3472      10326   fliter.o
      2308         82          0          8          0       5945   gps.o
         0          0          0         48          0       1097   hml_sample.o
      1112         20          0          0          0       5364   iic1.o
       936         10          0          1          0       4694   iic_soft.o
         0          0          0        166        196       4690   imu.o
      4096        216          0        121         24       6320   imu_m.o
      5124        146         60          0          0       3951   kf_oldx_nav.o
      1748         94          0          8          0       2320   led_fc.o
      8312        532          0        623       2352      12690   lis3mdl.o
       656        116          0         16       1304      11815   main.o
       224         20          0          0          0       1897   misc.o
       168         10          0          0        564      12102   mpu6050.o
         0          0          0        125          0       5440   ms5611_2.o
      1924        108          0       1028          0       6385   my_math.o
     16396        910          0        271       2972      24111   nav_ukf.o
      2196        218        256         92       4744      16167   os_core.o
       200         32          0          0          0        364   os_cpu_a.o
       488          8          0          6          0      12019   os_cpu_c.o
      2060         42          0          0          0       7296   os_flag.o
       972         16          0          0          0       4406   os_mbox.o
      1512         30          0          0          0       5861   os_q.o
       908         18          0          0          0       4138   os_sem.o
      1988         70          0          0          0       7981   os_task.o
       432         30          0          0          0       1918   os_time.o
      1588         94          0          0          0       5825   os_tmr.o
       256         26          0         36          0       3980   rt_nonfinite.o
       308         22          0          0          0       1982   rtgetinf.o
       200         18          0          0          0       2172   rtgetnan.o
        64         26        392          0       1536        876   startup_stm32f40_41xxx.o
       936         32          0          0          0       6469   stm32f4xx_dma.o
       272         10          0          0          0       2367   stm32f4xx_exti.o
      1684         28          0          0          0       9498   stm32f4xx_flash.o
       660         44          0          0          0       4237   stm32f4xx_gpio.o
        22          0          0          0          0       1075   stm32f4xx_it.o
        64          6          0          0          0       1381   stm32f4xx_iwdg.o
      1628         52          0         16          0      13152   stm32f4xx_rcc.o
      1152         36          0          0          0       6985   stm32f4xx_spi.o
       148         12          0          0          0       1885   stm32f4xx_syscfg.o
      3234         60          0          0          0      23092   stm32f4xx_tim.o
      1108         34          0          0          0       7960   stm32f4xx_usart.o
       528         46          0         20          0       1895   system_stm32f4xx.o
       616         38          0          0        360      30273   time.o
     10640       1070          0        308      44716     356046   ucos_task.o
      7884        536        144        229        800       8303   ukf_task.o
      2512        218          0        140         32       5632   ultrasonic.o
     32632       1486          0        598       7692      44789   usart_fc.o
        44          0          0          0          0        746   watch_dog.o

    ----------------------------------------------------------------------
    142044       7646        894      45548      75800     775426   Object Totals
         0          0         32          0          0          0   (incl. Generated)
         4          0         10         32         20          0   (incl. Padding)

    ----------------------------------------------------------------------

      Code (inc. data)   RO Data    RW Data    ZI Data      Debug   Library Member Name

       256          6          0          0          0      16158   arm_std_f32.o
        90          0          0          0          0          0   __dczerorl2.o
         8          0          0          0          0         68   __main.o
         0          0          0          0          0          0   __rtentry.o
        12          0          0          0          0          0   __rtentry2.o
         6          0          0          0          0          0   __rtentry4.o
        52          8          0          0          0          0   __scatter.o
        28          0          0          0          0          0   __scatter_zi.o
        22          0          0          0          0        100   _rserrno.o
        18          0          0          0          0         80   exit.o
        78          0          0          0          0         80   h1_free.o
         6          0          0          0          0        152   heapauxi.o
         0          0          0          0          0          0   indicate_semi.o
         2          0          0          0          0          0   libinit.o
         6          0          0          0          0          0   libinit2.o
         2          0          0          0          0          0   libshutdown.o
         2          0          0          0          0          0   libshutdown2.o
         8          4          0          0         96         68   libspace.o
         8          4          0          0          0         68   rt_errno_addr_intlibspace.o
         8          4          0          0          0         68   rt_heap_descriptor_intlibspace.o
        78          0          0          0          0         80   rt_memclr_w.o
       100          0          0          0          0         80   rt_memcpy_w.o
         2          0          0          0          0          0   rtexit.o
        10          0          0          0          0          0   rtexit2.o
        36          0          0          0          0         80   strstr.o
        12          4          0          0          0         68   sys_exit.o
        74          0          0          0          0         80   sys_stackheap_outer.o
         2          0          0          0          0         68   use_no_semi.o
      2584         12          0          0        168     220285   cycle_cal_oldx.o
      2900        124          0         97        140       4570   flow.o
        24          0          0          0          0        164   basic.o
        98          4          0          0          0        140   d2f.o
       826         16          0          0          0        492   daddsub_clz.o
        16          4          0          0          0        116   dcheck1.o
        24          0          0          0          0        116   dcmpi.o
       688        140          0          0          0        256   ddiv.o
       120          4          0          0          0        140   deqf.o
        94          4          0          0          0        140   dfix.o
        84          0          0          0          0        232   dflt_clz.o
       120          4          0          0          0        140   dleqf.o
       340         12          0          0          0        152   dmul.o
       156          4          0          0          0        140   dnaninf.o
        12          0          0          0          0        116   dretinf.o
       108          0          0          0          0        128   drleqf.o
       408         56          0          0          0        168   dsqrt_umaal.o
        86          4          0          0          0        132   f2d.o
       140          4          0          0          0        132   fnaninf.o
        10          0          0          0          0        116   fpinit.o
        10          0          0          0          0        116   fretinf.o
       100          0          0          0          0        116   retnan.o
        92          0          0          0          0        116   scalbn.o
        48          0          0          0          0        116   trapv.o
         0          0          0          0          0          0   usenofp.o
       856        118         80          0          0        288   acos.o
       864         94         80          0          0        280   asin.o
       300         42          0          0          0        176   asinf.o
       592         90          0          0          0        184   atan2f.o
       352         56          0          0          0        172   atanf.o
       200         20          0          0          0        164   cos.o
       368         46         48          0          0        200   cos_i.o
       336         56          0          0          0        136   cosf.o
       184         44          0          0          0        744   dunder.o
        44          0          0          0          0        248   fabs.o
       280         28          0          0          0        156   floor.o
        48          0          0          0          0        124   fpclassify.o
        38          0          0          0          0        116   fpclassifyf.o
        80         24          0          0          0        696   funder.o
       248          0          0          0          0        152   poly.o
      3152        296        136          0          0        352   pow.o
      1636        110        320          0          0        372   powf.o
         0          0          8          0          0          0   qnan.o
      1080        142        200          0          0        188   rred.o
       340         24         32          0          0        160   rredf.o
       200         20          0          0          0        164   sin.o
       304         24         40          0          0        208   sin_i.o
       400         56          0          0          0        212   sinf.o
       232          0          0          0          0        296   sqrt.o
        62          0          0          0          0        136   sqrtf.o

    ----------------------------------------------------------------------
     22246       1720        944        100        408     251561   Library Totals
        36          8          0          3          4          0   (incl. Padding)

    ----------------------------------------------------------------------

      Code (inc. data)   RO Data    RW Data    ZI Data      Debug   Library Name

       256          6          0          0          0      16158   arm_cortexM4lf_math.lib
       670         24          0          0         96       1140   c_w.l
      2584         12          0          0        168     220285   cycle_cal_oldx.lib
      2900        124          0         97        140       4570   flow_oldx.lib
      3604        256          0          0          0       3484   fz_wm.l
     12196       1290        944          0          0       5924   m_wm.l

    ----------------------------------------------------------------------
     22246       1720        944        100        408     251561   Library Totals

    ----------------------------------------------------------------------

==============================================================================


      Code (inc. data)   RO Data    RW Data    ZI Data      Debug   

    164290       9366       1838      45648      76208    1008367   Grand Totals
    164290       9366       1838       2788      76208    1008367   ELF Image Totals (compressed)
    164290       9366       1838       2788          0          0   ROM Totals

==============================================================================

    Total RO  Size (Code + RO Data)               166128 ( 162.23kB)
    Total RW  Size (RW Data + ZI Data)            121856 ( 119.00kB)
    Total ROM Size (Code + RO Data + RW Data)     168916 ( 164.96kB)

==============================================================================

